
bomb:     file format elf64-x86-64


Disassembly of section .init:

0000000000400ae8 <_init>:
  400ae8:	48 83 ec 08          	sub    $0x8,%rsp
  400aec:	48 8b 05 05 35 20 00 	mov    0x203505(%rip),%rax        # 603ff8 <_DYNAMIC+0x1d0>
  400af3:	48 85 c0             	test   %rax,%rax
  400af6:	74 05                	je     400afd <_init+0x15>
  400af8:	e8 d3 01 00 00       	callq  400cd0 <socket@plt+0x10>
  400afd:	48 83 c4 08          	add    $0x8,%rsp
  400b01:	c3                   	retq   

Disassembly of section .plt:

0000000000400b10 <getenv@plt-0x10>:
  400b10:	ff 35 f2 34 20 00    	pushq  0x2034f2(%rip)        # 604008 <_GLOBAL_OFFSET_TABLE_+0x8>
  400b16:	ff 25 f4 34 20 00    	jmpq   *0x2034f4(%rip)        # 604010 <_GLOBAL_OFFSET_TABLE_+0x10>
  400b1c:	0f 1f 40 00          	nopl   0x0(%rax)

0000000000400b20 <getenv@plt>:
  400b20:	ff 25 f2 34 20 00    	jmpq   *0x2034f2(%rip)        # 604018 <_GLOBAL_OFFSET_TABLE_+0x18>
  400b26:	68 00 00 00 00       	pushq  $0x0
  400b2b:	e9 e0 ff ff ff       	jmpq   400b10 <_init+0x28>

0000000000400b30 <strcasecmp@plt>:
  400b30:	ff 25 ea 34 20 00    	jmpq   *0x2034ea(%rip)        # 604020 <_GLOBAL_OFFSET_TABLE_+0x20>
  400b36:	68 01 00 00 00       	pushq  $0x1
  400b3b:	e9 d0 ff ff ff       	jmpq   400b10 <_init+0x28>

0000000000400b40 <__errno_location@plt>:
  400b40:	ff 25 e2 34 20 00    	jmpq   *0x2034e2(%rip)        # 604028 <_GLOBAL_OFFSET_TABLE_+0x28>
  400b46:	68 02 00 00 00       	pushq  $0x2
  400b4b:	e9 c0 ff ff ff       	jmpq   400b10 <_init+0x28>

0000000000400b50 <strcpy@plt>:
  400b50:	ff 25 da 34 20 00    	jmpq   *0x2034da(%rip)        # 604030 <_GLOBAL_OFFSET_TABLE_+0x30>
  400b56:	68 03 00 00 00       	pushq  $0x3
  400b5b:	e9 b0 ff ff ff       	jmpq   400b10 <_init+0x28>

0000000000400b60 <puts@plt>:
  400b60:	ff 25 d2 34 20 00    	jmpq   *0x2034d2(%rip)        # 604038 <_GLOBAL_OFFSET_TABLE_+0x38>
  400b66:	68 04 00 00 00       	pushq  $0x4
  400b6b:	e9 a0 ff ff ff       	jmpq   400b10 <_init+0x28>

0000000000400b70 <write@plt>:
  400b70:	ff 25 ca 34 20 00    	jmpq   *0x2034ca(%rip)        # 604040 <_GLOBAL_OFFSET_TABLE_+0x40>
  400b76:	68 05 00 00 00       	pushq  $0x5
  400b7b:	e9 90 ff ff ff       	jmpq   400b10 <_init+0x28>

0000000000400b80 <printf@plt>:
  400b80:	ff 25 c2 34 20 00    	jmpq   *0x2034c2(%rip)        # 604048 <_GLOBAL_OFFSET_TABLE_+0x48>
  400b86:	68 06 00 00 00       	pushq  $0x6
  400b8b:	e9 80 ff ff ff       	jmpq   400b10 <_init+0x28>

0000000000400b90 <alarm@plt>:
  400b90:	ff 25 ba 34 20 00    	jmpq   *0x2034ba(%rip)        # 604050 <_GLOBAL_OFFSET_TABLE_+0x50>
  400b96:	68 07 00 00 00       	pushq  $0x7
  400b9b:	e9 70 ff ff ff       	jmpq   400b10 <_init+0x28>

0000000000400ba0 <close@plt>:
  400ba0:	ff 25 b2 34 20 00    	jmpq   *0x2034b2(%rip)        # 604058 <_GLOBAL_OFFSET_TABLE_+0x58>
  400ba6:	68 08 00 00 00       	pushq  $0x8
  400bab:	e9 60 ff ff ff       	jmpq   400b10 <_init+0x28>

0000000000400bb0 <read@plt>:
  400bb0:	ff 25 aa 34 20 00    	jmpq   *0x2034aa(%rip)        # 604060 <_GLOBAL_OFFSET_TABLE_+0x60>
  400bb6:	68 09 00 00 00       	pushq  $0x9
  400bbb:	e9 50 ff ff ff       	jmpq   400b10 <_init+0x28>

0000000000400bc0 <__libc_start_main@plt>:
  400bc0:	ff 25 a2 34 20 00    	jmpq   *0x2034a2(%rip)        # 604068 <_GLOBAL_OFFSET_TABLE_+0x68>
  400bc6:	68 0a 00 00 00       	pushq  $0xa
  400bcb:	e9 40 ff ff ff       	jmpq   400b10 <_init+0x28>

0000000000400bd0 <fgets@plt>:
  400bd0:	ff 25 9a 34 20 00    	jmpq   *0x20349a(%rip)        # 604070 <_GLOBAL_OFFSET_TABLE_+0x70>
  400bd6:	68 0b 00 00 00       	pushq  $0xb
  400bdb:	e9 30 ff ff ff       	jmpq   400b10 <_init+0x28>

0000000000400be0 <signal@plt>:
  400be0:	ff 25 92 34 20 00    	jmpq   *0x203492(%rip)        # 604078 <_GLOBAL_OFFSET_TABLE_+0x78>
  400be6:	68 0c 00 00 00       	pushq  $0xc
  400beb:	e9 20 ff ff ff       	jmpq   400b10 <_init+0x28>

0000000000400bf0 <gethostbyname@plt>:
  400bf0:	ff 25 8a 34 20 00    	jmpq   *0x20348a(%rip)        # 604080 <_GLOBAL_OFFSET_TABLE_+0x80>
  400bf6:	68 0d 00 00 00       	pushq  $0xd
  400bfb:	e9 10 ff ff ff       	jmpq   400b10 <_init+0x28>

0000000000400c00 <fprintf@plt>:
  400c00:	ff 25 82 34 20 00    	jmpq   *0x203482(%rip)        # 604088 <_GLOBAL_OFFSET_TABLE_+0x88>
  400c06:	68 0e 00 00 00       	pushq  $0xe
  400c0b:	e9 00 ff ff ff       	jmpq   400b10 <_init+0x28>

0000000000400c10 <strtol@plt>:
  400c10:	ff 25 7a 34 20 00    	jmpq   *0x20347a(%rip)        # 604090 <_GLOBAL_OFFSET_TABLE_+0x90>
  400c16:	68 0f 00 00 00       	pushq  $0xf
  400c1b:	e9 f0 fe ff ff       	jmpq   400b10 <_init+0x28>

0000000000400c20 <fflush@plt>:
  400c20:	ff 25 72 34 20 00    	jmpq   *0x203472(%rip)        # 604098 <_GLOBAL_OFFSET_TABLE_+0x98>
  400c26:	68 10 00 00 00       	pushq  $0x10
  400c2b:	e9 e0 fe ff ff       	jmpq   400b10 <_init+0x28>

0000000000400c30 <__isoc99_sscanf@plt>:
  400c30:	ff 25 6a 34 20 00    	jmpq   *0x20346a(%rip)        # 6040a0 <_GLOBAL_OFFSET_TABLE_+0xa0>
  400c36:	68 11 00 00 00       	pushq  $0x11
  400c3b:	e9 d0 fe ff ff       	jmpq   400b10 <_init+0x28>

0000000000400c40 <memmove@plt>:
  400c40:	ff 25 62 34 20 00    	jmpq   *0x203462(%rip)        # 6040a8 <_GLOBAL_OFFSET_TABLE_+0xa8>
  400c46:	68 12 00 00 00       	pushq  $0x12
  400c4b:	e9 c0 fe ff ff       	jmpq   400b10 <_init+0x28>

0000000000400c50 <fopen@plt>:
  400c50:	ff 25 5a 34 20 00    	jmpq   *0x20345a(%rip)        # 6040b0 <_GLOBAL_OFFSET_TABLE_+0xb0>
  400c56:	68 13 00 00 00       	pushq  $0x13
  400c5b:	e9 b0 fe ff ff       	jmpq   400b10 <_init+0x28>

0000000000400c60 <gethostname@plt>:
  400c60:	ff 25 52 34 20 00    	jmpq   *0x203452(%rip)        # 6040b8 <_GLOBAL_OFFSET_TABLE_+0xb8>
  400c66:	68 14 00 00 00       	pushq  $0x14
  400c6b:	e9 a0 fe ff ff       	jmpq   400b10 <_init+0x28>

0000000000400c70 <sprintf@plt>:
  400c70:	ff 25 4a 34 20 00    	jmpq   *0x20344a(%rip)        # 6040c0 <_GLOBAL_OFFSET_TABLE_+0xc0>
  400c76:	68 15 00 00 00       	pushq  $0x15
  400c7b:	e9 90 fe ff ff       	jmpq   400b10 <_init+0x28>

0000000000400c80 <exit@plt>:
  400c80:	ff 25 42 34 20 00    	jmpq   *0x203442(%rip)        # 6040c8 <_GLOBAL_OFFSET_TABLE_+0xc8>
  400c86:	68 16 00 00 00       	pushq  $0x16
  400c8b:	e9 80 fe ff ff       	jmpq   400b10 <_init+0x28>

0000000000400c90 <connect@plt>:
  400c90:	ff 25 3a 34 20 00    	jmpq   *0x20343a(%rip)        # 6040d0 <_GLOBAL_OFFSET_TABLE_+0xd0>
  400c96:	68 17 00 00 00       	pushq  $0x17
  400c9b:	e9 70 fe ff ff       	jmpq   400b10 <_init+0x28>

0000000000400ca0 <sleep@plt>:
  400ca0:	ff 25 32 34 20 00    	jmpq   *0x203432(%rip)        # 6040d8 <_GLOBAL_OFFSET_TABLE_+0xd8>
  400ca6:	68 18 00 00 00       	pushq  $0x18
  400cab:	e9 60 fe ff ff       	jmpq   400b10 <_init+0x28>

0000000000400cb0 <__ctype_b_loc@plt>:
  400cb0:	ff 25 2a 34 20 00    	jmpq   *0x20342a(%rip)        # 6040e0 <_GLOBAL_OFFSET_TABLE_+0xe0>
  400cb6:	68 19 00 00 00       	pushq  $0x19
  400cbb:	e9 50 fe ff ff       	jmpq   400b10 <_init+0x28>

0000000000400cc0 <socket@plt>:
  400cc0:	ff 25 22 34 20 00    	jmpq   *0x203422(%rip)        # 6040e8 <_GLOBAL_OFFSET_TABLE_+0xe8>
  400cc6:	68 1a 00 00 00       	pushq  $0x1a
  400ccb:	e9 40 fe ff ff       	jmpq   400b10 <_init+0x28>

Disassembly of section .plt.got:

0000000000400cd0 <.plt.got>:
  400cd0:	ff 25 22 33 20 00    	jmpq   *0x203322(%rip)        # 603ff8 <_DYNAMIC+0x1d0>
  400cd6:	66 90                	xchg   %ax,%ax

Disassembly of section .text:

0000000000400ce0 <_start>:
  400ce0:	31 ed                	xor    %ebp,%ebp
  400ce2:	49 89 d1             	mov    %rdx,%r9
  400ce5:	5e                   	pop    %rsi
  400ce6:	48 89 e2             	mov    %rsp,%rdx
  400ce9:	48 83 e4 f0          	and    $0xfffffffffffffff0,%rsp
  400ced:	50                   	push   %rax
  400cee:	54                   	push   %rsp
  400cef:	49 c7 c0 20 29 40 00 	mov    $0x402920,%r8
  400cf6:	48 c7 c1 b0 28 40 00 	mov    $0x4028b0,%rcx
  400cfd:	48 c7 c7 b2 0d 40 00 	mov    $0x400db2,%rdi
  400d04:	e8 b7 fe ff ff       	callq  400bc0 <__libc_start_main@plt>
  400d09:	f4                   	hlt    
  400d0a:	66 0f 1f 44 00 00    	nopw   0x0(%rax,%rax,1)

0000000000400d10 <deregister_tm_clones>:
  400d10:	b8 80 47 60 00       	mov    $0x604780,%eax
  400d15:	48 3d 80 47 60 00    	cmp    $0x604780,%rax
  400d1b:	74 13                	je     400d30 <deregister_tm_clones+0x20>
  400d1d:	b8 00 00 00 00       	mov    $0x0,%eax
  400d22:	48 85 c0             	test   %rax,%rax
  400d25:	74 09                	je     400d30 <deregister_tm_clones+0x20>
  400d27:	bf 80 47 60 00       	mov    $0x604780,%edi
  400d2c:	ff e0                	jmpq   *%rax
  400d2e:	66 90                	xchg   %ax,%ax
  400d30:	c3                   	retq   
  400d31:	0f 1f 44 00 00       	nopl   0x0(%rax,%rax,1)
  400d36:	66 2e 0f 1f 84 00 00 	nopw   %cs:0x0(%rax,%rax,1)
  400d3d:	00 00 00 

0000000000400d40 <register_tm_clones>:
  400d40:	be 80 47 60 00       	mov    $0x604780,%esi
  400d45:	48 81 ee 80 47 60 00 	sub    $0x604780,%rsi
  400d4c:	48 c1 fe 03          	sar    $0x3,%rsi
  400d50:	48 89 f0             	mov    %rsi,%rax
  400d53:	48 c1 e8 3f          	shr    $0x3f,%rax
  400d57:	48 01 c6             	add    %rax,%rsi
  400d5a:	48 d1 fe             	sar    %rsi
  400d5d:	74 11                	je     400d70 <register_tm_clones+0x30>
  400d5f:	b8 00 00 00 00       	mov    $0x0,%eax
  400d64:	48 85 c0             	test   %rax,%rax
  400d67:	74 07                	je     400d70 <register_tm_clones+0x30>
  400d69:	bf 80 47 60 00       	mov    $0x604780,%edi
  400d6e:	ff e0                	jmpq   *%rax
  400d70:	c3                   	retq   
  400d71:	0f 1f 44 00 00       	nopl   0x0(%rax,%rax,1)
  400d76:	66 2e 0f 1f 84 00 00 	nopw   %cs:0x0(%rax,%rax,1)
  400d7d:	00 00 00 

0000000000400d80 <__do_global_dtors_aux>:
  400d80:	80 3d 11 3a 20 00 00 	cmpb   $0x0,0x203a11(%rip)        # 604798 <completed.7243>
  400d87:	75 17                	jne    400da0 <__do_global_dtors_aux+0x20>
  400d89:	55                   	push   %rbp
  400d8a:	48 89 e5             	mov    %rsp,%rbp
  400d8d:	e8 7e ff ff ff       	callq  400d10 <deregister_tm_clones>
  400d92:	c6 05 ff 39 20 00 01 	movb   $0x1,0x2039ff(%rip)        # 604798 <completed.7243>
  400d99:	5d                   	pop    %rbp
  400d9a:	c3                   	retq   
  400d9b:	0f 1f 44 00 00       	nopl   0x0(%rax,%rax,1)
  400da0:	c3                   	retq   
  400da1:	0f 1f 44 00 00       	nopl   0x0(%rax,%rax,1)
  400da6:	66 2e 0f 1f 84 00 00 	nopw   %cs:0x0(%rax,%rax,1)
  400dad:	00 00 00 

0000000000400db0 <frame_dummy>:
  400db0:	eb 8e                	jmp    400d40 <register_tm_clones>

0000000000400db2 <main>:
  400db2:	55                   	push   %rbp
  400db3:	53                   	push   %rbx
  400db4:	48 83 ec 08          	sub    $0x8,%rsp
  400db8:	89 fb                	mov    %edi,%ebx
  400dba:	83 ff 01             	cmp    $0x1,%edi
  400dbd:	0f 84 e5 00 00 00    	je     400ea8 <main+0xf6>
  400dc3:	48 89 f5             	mov    %rsi,%rbp
  400dc6:	83 ff 02             	cmp    $0x2,%edi
  400dc9:	0f 85 08 01 00 00    	jne    400ed7 <main+0x125>
  400dcf:	48 8b 7e 08          	mov    0x8(%rsi),%rdi
  400dd3:	be 44 29 40 00       	mov    $0x402944,%esi
  400dd8:	e8 73 fe ff ff       	callq  400c50 <fopen@plt>
  400ddd:	48 89 05 c4 39 20 00 	mov    %rax,0x2039c4(%rip)        # 6047a8 <infile>
  400de4:	48 85 c0             	test   %rax,%rax
  400de7:	0f 84 ce 00 00 00    	je     400ebb <main+0x109>
  400ded:	e8 f1 05 00 00       	callq  4013e3 <initialize_bomb>
  400df2:	89 df                	mov    %ebx,%edi
  400df4:	b8 00 00 00 00       	mov    $0x0,%eax
  400df9:	e8 9a 06 00 00       	callq  401498 <welcome_message>
  400dfe:	e8 73 0e 00 00       	callq  401c76 <read_line>
  400e03:	48 89 c7             	mov    %rax,%rdi
  400e06:	e8 e8 00 00 00       	callq  400ef3 <phase_1>
  400e0b:	e8 41 08 00 00       	callq  401651 <phase_defused>
  400e10:	bf 80 29 40 00       	mov    $0x402980,%edi
  400e15:	e8 46 fd ff ff       	callq  400b60 <puts@plt>
  400e1a:	e8 57 0e 00 00       	callq  401c76 <read_line>
  400e1f:	48 89 c7             	mov    %rax,%rdi
  400e22:	e8 eb 00 00 00       	callq  400f12 <phase_2>
  400e27:	e8 25 08 00 00       	callq  401651 <phase_defused>
  400e2c:	bf c0 29 40 00       	mov    $0x4029c0,%edi
  400e31:	e8 2a fd ff ff       	callq  400b60 <puts@plt>
  400e36:	e8 3b 0e 00 00       	callq  401c76 <read_line>
  400e3b:	48 89 c7             	mov    %rax,%rdi
  400e3e:	e8 7a 01 00 00       	callq  400fbd <phase_3>
  400e43:	e8 09 08 00 00       	callq  401651 <phase_defused>
  400e48:	bf e8 29 40 00       	mov    $0x4029e8,%edi
  400e4d:	e8 0e fd ff ff       	callq  400b60 <puts@plt>
  400e52:	e8 1f 0e 00 00       	callq  401c76 <read_line>
  400e57:	48 89 c7             	mov    %rax,%rdi
  400e5a:	e8 fd 01 00 00       	callq  40105c <phase_4>
  400e5f:	e8 ed 07 00 00       	callq  401651 <phase_defused>
  400e64:	bf 10 2a 40 00       	mov    $0x402a10,%edi
  400e69:	e8 f2 fc ff ff       	callq  400b60 <puts@plt>
  400e6e:	e8 03 0e 00 00       	callq  401c76 <read_line>
  400e73:	48 89 c7             	mov    %rax,%rdi
  400e76:	e8 34 02 00 00       	callq  4010af <phase_5>
  400e7b:	e8 d1 07 00 00       	callq  401651 <phase_defused>
  400e80:	bf 48 2a 40 00       	mov    $0x402a48,%edi
  400e85:	e8 d6 fc ff ff       	callq  400b60 <puts@plt>
  400e8a:	e8 e7 0d 00 00       	callq  401c76 <read_line>
  400e8f:	48 89 c7             	mov    %rax,%rdi
  400e92:	e8 8b 02 00 00       	callq  401122 <phase_6>
  400e97:	e8 b5 07 00 00       	callq  401651 <phase_defused>
  400e9c:	b8 00 00 00 00       	mov    $0x0,%eax
  400ea1:	48 83 c4 08          	add    $0x8,%rsp
  400ea5:	5b                   	pop    %rbx
  400ea6:	5d                   	pop    %rbp
  400ea7:	c3                   	retq   
  400ea8:	48 8b 05 d9 38 20 00 	mov    0x2038d9(%rip),%rax        # 604788 <stdin@@GLIBC_2.2.5>
  400eaf:	48 89 05 f2 38 20 00 	mov    %rax,0x2038f2(%rip)        # 6047a8 <infile>
  400eb6:	e9 32 ff ff ff       	jmpq   400ded <main+0x3b>
  400ebb:	48 8b 55 08          	mov    0x8(%rbp),%rdx
  400ebf:	48 8b 75 00          	mov    0x0(%rbp),%rsi
  400ec3:	bf 46 29 40 00       	mov    $0x402946,%edi
  400ec8:	e8 b3 fc ff ff       	callq  400b80 <printf@plt>
  400ecd:	bf 08 00 00 00       	mov    $0x8,%edi
  400ed2:	e8 a9 fd ff ff       	callq  400c80 <exit@plt>
  400ed7:	48 8b 36             	mov    (%rsi),%rsi
  400eda:	bf 63 29 40 00       	mov    $0x402963,%edi
  400edf:	b8 00 00 00 00       	mov    $0x0,%eax
  400ee4:	e8 97 fc ff ff       	callq  400b80 <printf@plt>
  400ee9:	bf 08 00 00 00       	mov    $0x8,%edi
  400eee:	e8 8d fd ff ff       	callq  400c80 <exit@plt>

0000000000400ef3 <phase_1>:
  400ef3:	53                   	push   %rbx
  400ef4:	48 89 fb             	mov    %rdi,%rbx
  400ef7:	80 7f 01 00          	cmpb   $0x0,0x1(%rdi)
  400efb:	75 07                	jne    400f04 <phase_1+0x11>
  400efd:	80 3b 68             	cmpb   $0x68,(%rbx)
  400f00:	75 09                	jne    400f0b <phase_1+0x18>
  400f02:	5b                   	pop    %rbx
  400f03:	c3                   	retq   
  400f04:	e8 83 07 00 00       	callq  40168c <explode_bomb>
  400f09:	eb f2                	jmp    400efd <phase_1+0xa>
  400f0b:	e8 7c 07 00 00       	callq  40168c <explode_bomb>
  400f10:	eb f0                	jmp    400f02 <phase_1+0xf>

0000000000400f12 <phase_2>:
  400f12:	41 54                	push   %r12
  400f14:	55                   	push   %rbp
  400f15:	53                   	push   %rbx
  400f16:	48 83 ec 20          	sub    $0x20,%rsp
  400f1a:	48 89 e6             	mov    %rsp,%rsi
  400f1d:	e8 15 0d 00 00       	callq  401c37 <read_six_numbers>
  400f22:	83 3c 24 00          	cmpl   $0x0,(%rsp)
  400f26:	78 0a                	js     400f32 <phase_2+0x20>
  400f28:	48 89 e3             	mov    %rsp,%rbx
  400f2b:	bd 01 00 00 00       	mov    $0x1,%ebp
  400f30:	eb 23                	jmp    400f55 <phase_2+0x43>
  400f32:	e8 55 07 00 00       	callq  40168c <explode_bomb>
  400f37:	eb ef                	jmp    400f28 <phase_2+0x16>
  400f39:	e8 4e 07 00 00       	callq  40168c <explode_bomb>
  400f3e:	41 8b 44 24 04       	mov    0x4(%r12),%eax
  400f43:	89 05 53 38 20 00    	mov    %eax,0x203853(%rip)        # 60479c <trap>
  400f49:	83 c5 01             	add    $0x1,%ebp
  400f4c:	48 83 c3 04          	add    $0x4,%rbx
  400f50:	83 fd 06             	cmp    $0x6,%ebp
  400f53:	74 0e                	je     400f63 <phase_2+0x51>
  400f55:	49 89 dc             	mov    %rbx,%r12
  400f58:	89 e8                	mov    %ebp,%eax
  400f5a:	03 03                	add    (%rbx),%eax
  400f5c:	39 43 04             	cmp    %eax,0x4(%rbx)
  400f5f:	74 dd                	je     400f3e <phase_2+0x2c>
  400f61:	eb d6                	jmp    400f39 <phase_2+0x27>
  400f63:	48 83 c4 20          	add    $0x20,%rsp
  400f67:	5b                   	pop    %rbx
  400f68:	5d                   	pop    %rbp
  400f69:	41 5c                	pop    %r12
  400f6b:	c3                   	retq   

0000000000400f6c <func_switch>:
  400f6c:	83 ff 07             	cmp    $0x7,%edi
  400f6f:	77 33                	ja     400fa4 <func_switch+0x38>
  400f71:	89 ff                	mov    %edi,%edi
  400f73:	ff 24 fd 80 2a 40 00 	jmpq   *0x402a80(,%rdi,8)
  400f7a:	b8 56 00 00 00       	mov    $0x56,%eax
  400f7f:	c3                   	retq   
  400f80:	b8 ef 02 00 00       	mov    $0x2ef,%eax
  400f85:	c3                   	retq   
  400f86:	b8 bb 00 00 00       	mov    $0xbb,%eax
  400f8b:	c3                   	retq   
  400f8c:	b8 7d 03 00 00       	mov    $0x37d,%eax
  400f91:	c3                   	retq   
  400f92:	b8 24 03 00 00       	mov    $0x324,%eax
  400f97:	c3                   	retq   
  400f98:	b8 ba 02 00 00       	mov    $0x2ba,%eax
  400f9d:	c3                   	retq   
  400f9e:	b8 7d 03 00 00       	mov    $0x37d,%eax
  400fa3:	c3                   	retq   
  400fa4:	48 83 ec 08          	sub    $0x8,%rsp
  400fa8:	e8 df 06 00 00       	callq  40168c <explode_bomb>
  400fad:	b8 00 00 00 00       	mov    $0x0,%eax
  400fb2:	48 83 c4 08          	add    $0x8,%rsp
  400fb6:	c3                   	retq   
  400fb7:	b8 3b 00 00 00       	mov    $0x3b,%eax
  400fbc:	c3                   	retq   

0000000000400fbd <phase_3>:
  400fbd:	53                   	push   %rbx
  400fbe:	48 83 ec 10          	sub    $0x10,%rsp
  400fc2:	c7 44 24 0c 00 00 00 	movl   $0x0,0xc(%rsp)
  400fc9:	00 
  400fca:	c7 44 24 08 00 00 00 	movl   $0x0,0x8(%rsp)
  400fd1:	00 
  400fd2:	48 8d 4c 24 08       	lea    0x8(%rsp),%rcx
  400fd7:	48 8d 54 24 0c       	lea    0xc(%rsp),%rdx
  400fdc:	be d1 31 40 00       	mov    $0x4031d1,%esi
  400fe1:	b8 00 00 00 00       	mov    $0x0,%eax
  400fe6:	e8 45 fc ff ff       	callq  400c30 <__isoc99_sscanf@plt>
  400feb:	83 f8 01             	cmp    $0x1,%eax
  400fee:	7e 0a                	jle    400ffa <phase_3+0x3d>
  400ff0:	8b 44 24 08          	mov    0x8(%rsp),%eax
  400ff4:	39 44 24 0c          	cmp    %eax,0xc(%rsp)
  400ff8:	75 05                	jne    400fff <phase_3+0x42>
  400ffa:	e8 8d 06 00 00       	callq  40168c <explode_bomb>
  400fff:	8b 7c 24 0c          	mov    0xc(%rsp),%edi
  401003:	e8 64 ff ff ff       	callq  400f6c <func_switch>
  401008:	89 c3                	mov    %eax,%ebx
  40100a:	8b 7c 24 08          	mov    0x8(%rsp),%edi
  40100e:	e8 59 ff ff ff       	callq  400f6c <func_switch>
  401013:	39 c3                	cmp    %eax,%ebx
  401015:	75 06                	jne    40101d <phase_3+0x60>
  401017:	48 83 c4 10          	add    $0x10,%rsp
  40101b:	5b                   	pop    %rbx
  40101c:	c3                   	retq   
  40101d:	e8 6a 06 00 00       	callq  40168c <explode_bomb>
  401022:	eb f3                	jmp    401017 <phase_3+0x5a>

0000000000401024 <func4>:
  401024:	b8 00 00 00 00       	mov    $0x0,%eax
  401029:	85 ff                	test   %edi,%edi
  40102b:	7e 2e                	jle    40105b <func4+0x37>
  40102d:	89 f0                	mov    %esi,%eax
  40102f:	83 ff 01             	cmp    $0x1,%edi
  401032:	74 27                	je     40105b <func4+0x37>
  401034:	41 54                	push   %r12
  401036:	55                   	push   %rbp
  401037:	53                   	push   %rbx
  401038:	41 89 f4             	mov    %esi,%r12d
  40103b:	89 fb                	mov    %edi,%ebx
  40103d:	8d 7f ff             	lea    -0x1(%rdi),%edi
  401040:	e8 df ff ff ff       	callq  401024 <func4>
  401045:	42 8d 2c 20          	lea    (%rax,%r12,1),%ebp
  401049:	8d 7b fe             	lea    -0x2(%rbx),%edi
  40104c:	44 89 e6             	mov    %r12d,%esi
  40104f:	e8 d0 ff ff ff       	callq  401024 <func4>
  401054:	01 e8                	add    %ebp,%eax
  401056:	5b                   	pop    %rbx
  401057:	5d                   	pop    %rbp
  401058:	41 5c                	pop    %r12
  40105a:	c3                   	retq   
  40105b:	c3                   	retq   

000000000040105c <phase_4>:
  40105c:	48 83 ec 18          	sub    $0x18,%rsp
  401060:	48 8d 4c 24 0c       	lea    0xc(%rsp),%rcx
  401065:	48 8d 54 24 08       	lea    0x8(%rsp),%rdx
  40106a:	be d1 31 40 00       	mov    $0x4031d1,%esi
  40106f:	b8 00 00 00 00       	mov    $0x0,%eax
  401074:	e8 b7 fb ff ff       	callq  400c30 <__isoc99_sscanf@plt>
  401079:	83 f8 02             	cmp    $0x2,%eax
  40107c:	75 0c                	jne    40108a <phase_4+0x2e>
  40107e:	8b 44 24 0c          	mov    0xc(%rsp),%eax
  401082:	83 e8 02             	sub    $0x2,%eax
  401085:	83 f8 02             	cmp    $0x2,%eax
  401088:	76 05                	jbe    40108f <phase_4+0x33>
  40108a:	e8 fd 05 00 00       	callq  40168c <explode_bomb>
  40108f:	8b 74 24 0c          	mov    0xc(%rsp),%esi
  401093:	bf 07 00 00 00       	mov    $0x7,%edi
  401098:	e8 87 ff ff ff       	callq  401024 <func4>
  40109d:	39 44 24 08          	cmp    %eax,0x8(%rsp)
  4010a1:	75 05                	jne    4010a8 <phase_4+0x4c>
  4010a3:	48 83 c4 18          	add    $0x18,%rsp
  4010a7:	c3                   	retq   
  4010a8:	e8 df 05 00 00       	callq  40168c <explode_bomb>
  4010ad:	eb f4                	jmp    4010a3 <phase_4+0x47>

00000000004010af <phase_5>:
  4010af:	48 83 ec 18          	sub    $0x18,%rsp
  4010b3:	48 8d 4c 24 08       	lea    0x8(%rsp),%rcx
  4010b8:	48 8d 54 24 0c       	lea    0xc(%rsp),%rdx
  4010bd:	be d1 31 40 00       	mov    $0x4031d1,%esi
  4010c2:	b8 00 00 00 00       	mov    $0x0,%eax
  4010c7:	e8 64 fb ff ff       	callq  400c30 <__isoc99_sscanf@plt>
  4010cc:	83 f8 01             	cmp    $0x1,%eax
  4010cf:	7e 4a                	jle    40111b <phase_5+0x6c>
  4010d1:	8b 44 24 0c          	mov    0xc(%rsp),%eax
  4010d5:	83 e0 0f             	and    $0xf,%eax
  4010d8:	89 44 24 0c          	mov    %eax,0xc(%rsp)
  4010dc:	83 f8 0f             	cmp    $0xf,%eax
  4010df:	74 30                	je     401111 <phase_5+0x62>
  4010e1:	b9 00 00 00 00       	mov    $0x0,%ecx
  4010e6:	ba 00 00 00 00       	mov    $0x0,%edx
  4010eb:	83 c2 01             	add    $0x1,%edx
  4010ee:	48 98                	cltq   
  4010f0:	8b 04 85 c0 2a 40 00 	mov    0x402ac0(,%rax,4),%eax
  4010f7:	01 c1                	add    %eax,%ecx
  4010f9:	83 f8 0f             	cmp    $0xf,%eax
  4010fc:	75 ed                	jne    4010eb <phase_5+0x3c>
  4010fe:	c7 44 24 0c 0f 00 00 	movl   $0xf,0xc(%rsp)
  401105:	00 
  401106:	83 fa 0f             	cmp    $0xf,%edx
  401109:	75 06                	jne    401111 <phase_5+0x62>
  40110b:	39 4c 24 08          	cmp    %ecx,0x8(%rsp)
  40110f:	74 05                	je     401116 <phase_5+0x67>
  401111:	e8 76 05 00 00       	callq  40168c <explode_bomb>
  401116:	48 83 c4 18          	add    $0x18,%rsp
  40111a:	c3                   	retq   
  40111b:	e8 6c 05 00 00       	callq  40168c <explode_bomb>
  401120:	eb af                	jmp    4010d1 <phase_5+0x22>

0000000000401122 <phase_6>:
  401122:	41 57                	push   %r15
  401124:	41 56                	push   %r14
  401126:	41 55                	push   %r13
  401128:	41 54                	push   %r12
  40112a:	55                   	push   %rbp
  40112b:	53                   	push   %rbx
  40112c:	48 83 ec 58          	sub    $0x58,%rsp
  401130:	48 8d 74 24 30       	lea    0x30(%rsp),%rsi
  401135:	e8 fd 0a 00 00       	callq  401c37 <read_six_numbers>
  40113a:	4c 8d 6c 24 30       	lea    0x30(%rsp),%r13
  40113f:	4d 8d 7d 14          	lea    0x14(%r13),%r15
  401143:	4d 89 ec             	mov    %r13,%r12
  401146:	41 be 01 00 00 00    	mov    $0x1,%r14d
  40114c:	eb 28                	jmp    401176 <phase_6+0x54>
  40114e:	e8 39 05 00 00       	callq  40168c <explode_bomb>
  401153:	eb 30                	jmp    401185 <phase_6+0x63>
  401155:	48 83 c3 01          	add    $0x1,%rbx
  401159:	83 fb 05             	cmp    $0x5,%ebx
  40115c:	7f 10                	jg     40116e <phase_6+0x4c>
  40115e:	8b 44 9c 30          	mov    0x30(%rsp,%rbx,4),%eax
  401162:	39 45 00             	cmp    %eax,0x0(%rbp)
  401165:	75 ee                	jne    401155 <phase_6+0x33>
  401167:	e8 20 05 00 00       	callq  40168c <explode_bomb>
  40116c:	eb e7                	jmp    401155 <phase_6+0x33>
  40116e:	49 83 c6 01          	add    $0x1,%r14
  401172:	49 83 c4 04          	add    $0x4,%r12
  401176:	4c 89 e5             	mov    %r12,%rbp
  401179:	41 8b 04 24          	mov    (%r12),%eax
  40117d:	83 e8 01             	sub    $0x1,%eax
  401180:	83 f8 05             	cmp    $0x5,%eax
  401183:	77 c9                	ja     40114e <phase_6+0x2c>
  401185:	4d 39 fc             	cmp    %r15,%r12
  401188:	74 05                	je     40118f <phase_6+0x6d>
  40118a:	4c 89 f3             	mov    %r14,%rbx
  40118d:	eb cf                	jmp    40115e <phase_6+0x3c>
  40118f:	49 8d 4d 18          	lea    0x18(%r13),%rcx
  401193:	ba 07 00 00 00       	mov    $0x7,%edx
  401198:	89 d0                	mov    %edx,%eax
  40119a:	41 2b 45 00          	sub    0x0(%r13),%eax
  40119e:	41 89 45 00          	mov    %eax,0x0(%r13)
  4011a2:	49 83 c5 04          	add    $0x4,%r13
  4011a6:	4c 39 e9             	cmp    %r13,%rcx
  4011a9:	75 ed                	jne    401198 <phase_6+0x76>
  4011ab:	be 00 00 00 00       	mov    $0x0,%esi
  4011b0:	8b 4c b4 30          	mov    0x30(%rsp,%rsi,4),%ecx
  4011b4:	b8 01 00 00 00       	mov    $0x1,%eax
  4011b9:	ba f0 42 60 00       	mov    $0x6042f0,%edx
  4011be:	83 f9 01             	cmp    $0x1,%ecx
  4011c1:	7e 0b                	jle    4011ce <phase_6+0xac>
  4011c3:	48 8b 52 08          	mov    0x8(%rdx),%rdx
  4011c7:	83 c0 01             	add    $0x1,%eax
  4011ca:	39 c8                	cmp    %ecx,%eax
  4011cc:	75 f5                	jne    4011c3 <phase_6+0xa1>
  4011ce:	48 89 14 f4          	mov    %rdx,(%rsp,%rsi,8)
  4011d2:	48 83 c6 01          	add    $0x1,%rsi
  4011d6:	48 83 fe 06          	cmp    $0x6,%rsi
  4011da:	75 d4                	jne    4011b0 <phase_6+0x8e>
  4011dc:	48 8b 1c 24          	mov    (%rsp),%rbx
  4011e0:	48 8b 44 24 08       	mov    0x8(%rsp),%rax
  4011e5:	48 89 43 08          	mov    %rax,0x8(%rbx)
  4011e9:	48 8b 54 24 10       	mov    0x10(%rsp),%rdx
  4011ee:	48 89 50 08          	mov    %rdx,0x8(%rax)
  4011f2:	48 8b 44 24 18       	mov    0x18(%rsp),%rax
  4011f7:	48 89 42 08          	mov    %rax,0x8(%rdx)
  4011fb:	48 8b 54 24 20       	mov    0x20(%rsp),%rdx
  401200:	48 89 50 08          	mov    %rdx,0x8(%rax)
  401204:	48 8b 44 24 28       	mov    0x28(%rsp),%rax
  401209:	48 89 42 08          	mov    %rax,0x8(%rdx)
  40120d:	48 c7 40 08 00 00 00 	movq   $0x0,0x8(%rax)
  401214:	00 
  401215:	bd 05 00 00 00       	mov    $0x5,%ebp
  40121a:	eb 09                	jmp    401225 <phase_6+0x103>
  40121c:	48 8b 5b 08          	mov    0x8(%rbx),%rbx
  401220:	83 ed 01             	sub    $0x1,%ebp
  401223:	74 11                	je     401236 <phase_6+0x114>
  401225:	48 8b 43 08          	mov    0x8(%rbx),%rax
  401229:	8b 00                	mov    (%rax),%eax
  40122b:	39 03                	cmp    %eax,(%rbx)
  40122d:	7d ed                	jge    40121c <phase_6+0xfa>
  40122f:	e8 58 04 00 00       	callq  40168c <explode_bomb>
  401234:	eb e6                	jmp    40121c <phase_6+0xfa>
  401236:	83 3d 5f 35 20 00 21 	cmpl   $0x21,0x20355f(%rip)        # 60479c <trap>
  40123d:	74 0f                	je     40124e <phase_6+0x12c>
  40123f:	48 83 c4 58          	add    $0x58,%rsp
  401243:	5b                   	pop    %rbx
  401244:	5d                   	pop    %rbp
  401245:	41 5c                	pop    %r12
  401247:	41 5d                	pop    %r13
  401249:	41 5e                	pop    %r14
  40124b:	41 5f                	pop    %r15
  40124d:	c3                   	retq   
  40124e:	e8 39 04 00 00       	callq  40168c <explode_bomb>
  401253:	eb ea                	jmp    40123f <phase_6+0x11d>

0000000000401255 <fun7>:
  401255:	48 85 ff             	test   %rdi,%rdi
  401258:	74 32                	je     40128c <fun7+0x37>
  40125a:	48 83 ec 08          	sub    $0x8,%rsp
  40125e:	8b 17                	mov    (%rdi),%edx
  401260:	39 f2                	cmp    %esi,%edx
  401262:	7f 0c                	jg     401270 <fun7+0x1b>
  401264:	b8 00 00 00 00       	mov    $0x0,%eax
  401269:	75 12                	jne    40127d <fun7+0x28>
  40126b:	48 83 c4 08          	add    $0x8,%rsp
  40126f:	c3                   	retq   
  401270:	48 8b 7f 08          	mov    0x8(%rdi),%rdi
  401274:	e8 dc ff ff ff       	callq  401255 <fun7>
  401279:	01 c0                	add    %eax,%eax
  40127b:	eb ee                	jmp    40126b <fun7+0x16>
  40127d:	48 8b 7f 10          	mov    0x10(%rdi),%rdi
  401281:	e8 cf ff ff ff       	callq  401255 <fun7>
  401286:	8d 44 00 01          	lea    0x1(%rax,%rax,1),%eax
  40128a:	eb df                	jmp    40126b <fun7+0x16>
  40128c:	b8 ff ff ff ff       	mov    $0xffffffff,%eax
  401291:	c3                   	retq   

0000000000401292 <s3cret_phase>:
  401292:	53                   	push   %rbx
  401293:	e8 de 09 00 00       	callq  401c76 <read_line>
  401298:	ba 0a 00 00 00       	mov    $0xa,%edx
  40129d:	be 00 00 00 00       	mov    $0x0,%esi
  4012a2:	48 89 c7             	mov    %rax,%rdi
  4012a5:	e8 66 f9 ff ff       	callq  400c10 <strtol@plt>
  4012aa:	48 89 c3             	mov    %rax,%rbx
  4012ad:	8d 40 ff             	lea    -0x1(%rax),%eax
  4012b0:	3d e8 03 00 00       	cmp    $0x3e8,%eax
  4012b5:	77 2c                	ja     4012e3 <s3cret_phase+0x51>
  4012b7:	89 de                	mov    %ebx,%esi
  4012b9:	bf 10 41 60 00       	mov    $0x604110,%edi
  4012be:	e8 92 ff ff ff       	callq  401255 <fun7>
  4012c3:	83 f8 05             	cmp    $0x5,%eax
  4012c6:	75 22                	jne    4012ea <s3cret_phase+0x58>
  4012c8:	bf 00 2b 40 00       	mov    $0x402b00,%edi
  4012cd:	e8 8e f8 ff ff       	callq  400b60 <puts@plt>
  4012d2:	bf 28 2b 40 00       	mov    $0x402b28,%edi
  4012d7:	e8 84 f8 ff ff       	callq  400b60 <puts@plt>
  4012dc:	e8 70 03 00 00       	callq  401651 <phase_defused>
  4012e1:	5b                   	pop    %rbx
  4012e2:	c3                   	retq   
  4012e3:	e8 a4 03 00 00       	callq  40168c <explode_bomb>
  4012e8:	eb cd                	jmp    4012b7 <s3cret_phase+0x25>
  4012ea:	e8 9d 03 00 00       	callq  40168c <explode_bomb>
  4012ef:	eb d7                	jmp    4012c8 <s3cret_phase+0x36>

00000000004012f1 <sig_handler>:
  4012f1:	48 83 ec 08          	sub    $0x8,%rsp
  4012f5:	bf 50 2b 40 00       	mov    $0x402b50,%edi
  4012fa:	e8 61 f8 ff ff       	callq  400b60 <puts@plt>
  4012ff:	bf 03 00 00 00       	mov    $0x3,%edi
  401304:	e8 97 f9 ff ff       	callq  400ca0 <sleep@plt>
  401309:	bf f3 30 40 00       	mov    $0x4030f3,%edi
  40130e:	b8 00 00 00 00       	mov    $0x0,%eax
  401313:	e8 68 f8 ff ff       	callq  400b80 <printf@plt>
  401318:	48 8b 3d 61 34 20 00 	mov    0x203461(%rip),%rdi        # 604780 <__TMC_END__>
  40131f:	e8 fc f8 ff ff       	callq  400c20 <fflush@plt>
  401324:	bf 01 00 00 00       	mov    $0x1,%edi
  401329:	e8 72 f9 ff ff       	callq  400ca0 <sleep@plt>
  40132e:	bf fb 30 40 00       	mov    $0x4030fb,%edi
  401333:	e8 28 f8 ff ff       	callq  400b60 <puts@plt>
  401338:	bf 10 00 00 00       	mov    $0x10,%edi
  40133d:	e8 3e f9 ff ff       	callq  400c80 <exit@plt>

0000000000401342 <invalid_phase>:
  401342:	48 83 ec 08          	sub    $0x8,%rsp
  401346:	48 89 fe             	mov    %rdi,%rsi
  401349:	bf 03 31 40 00       	mov    $0x403103,%edi
  40134e:	b8 00 00 00 00       	mov    $0x0,%eax
  401353:	e8 28 f8 ff ff       	callq  400b80 <printf@plt>
  401358:	bf 08 00 00 00       	mov    $0x8,%edi
  40135d:	e8 1e f9 ff ff       	callq  400c80 <exit@plt>

0000000000401362 <string_length>:
  401362:	b8 00 00 00 00       	mov    $0x0,%eax
  401367:	80 3f 00             	cmpb   $0x0,(%rdi)
  40136a:	74 0e                	je     40137a <string_length+0x18>
  40136c:	48 83 c7 01          	add    $0x1,%rdi
  401370:	83 c0 01             	add    $0x1,%eax
  401373:	3d 10 27 00 00       	cmp    $0x2710,%eax
  401378:	75 ed                	jne    401367 <string_length+0x5>
  40137a:	c3                   	retq   

000000000040137b <strings_not_equal>:
  40137b:	41 54                	push   %r12
  40137d:	55                   	push   %rbp
  40137e:	53                   	push   %rbx
  40137f:	48 89 fb             	mov    %rdi,%rbx
  401382:	48 89 f5             	mov    %rsi,%rbp
  401385:	e8 d8 ff ff ff       	callq  401362 <string_length>
  40138a:	41 89 c4             	mov    %eax,%r12d
  40138d:	48 89 ef             	mov    %rbp,%rdi
  401390:	e8 cd ff ff ff       	callq  401362 <string_length>
  401395:	ba 01 00 00 00       	mov    $0x1,%edx
  40139a:	41 39 c4             	cmp    %eax,%r12d
  40139d:	75 2f                	jne    4013ce <strings_not_equal+0x53>
  40139f:	0f b6 03             	movzbl (%rbx),%eax
  4013a2:	84 c0                	test   %al,%al
  4013a4:	74 2f                	je     4013d5 <strings_not_equal+0x5a>
  4013a6:	3a 45 00             	cmp    0x0(%rbp),%al
  4013a9:	75 31                	jne    4013dc <strings_not_equal+0x61>
  4013ab:	b8 01 00 00 00       	mov    $0x1,%eax
  4013b0:	0f b6 14 03          	movzbl (%rbx,%rax,1),%edx
  4013b4:	84 d2                	test   %dl,%dl
  4013b6:	74 11                	je     4013c9 <strings_not_equal+0x4e>
  4013b8:	48 83 c0 01          	add    $0x1,%rax
  4013bc:	38 54 05 ff          	cmp    %dl,-0x1(%rbp,%rax,1)
  4013c0:	74 ee                	je     4013b0 <strings_not_equal+0x35>
  4013c2:	ba 01 00 00 00       	mov    $0x1,%edx
  4013c7:	eb 05                	jmp    4013ce <strings_not_equal+0x53>
  4013c9:	ba 00 00 00 00       	mov    $0x0,%edx
  4013ce:	89 d0                	mov    %edx,%eax
  4013d0:	5b                   	pop    %rbx
  4013d1:	5d                   	pop    %rbp
  4013d2:	41 5c                	pop    %r12
  4013d4:	c3                   	retq   
  4013d5:	ba 00 00 00 00       	mov    $0x0,%edx
  4013da:	eb f2                	jmp    4013ce <strings_not_equal+0x53>
  4013dc:	ba 01 00 00 00       	mov    $0x1,%edx
  4013e1:	eb eb                	jmp    4013ce <strings_not_equal+0x53>

00000000004013e3 <initialize_bomb>:
  4013e3:	53                   	push   %rbx
  4013e4:	48 81 ec 40 20 00 00 	sub    $0x2040,%rsp
  4013eb:	be f1 12 40 00       	mov    $0x4012f1,%esi
  4013f0:	bf 02 00 00 00       	mov    $0x2,%edi
  4013f5:	e8 e6 f7 ff ff       	callq  400be0 <signal@plt>
  4013fa:	be 40 00 00 00       	mov    $0x40,%esi
  4013ff:	48 8d bc 24 00 20 00 	lea    0x2000(%rsp),%rdi
  401406:	00 
  401407:	e8 54 f8 ff ff       	callq  400c60 <gethostname@plt>
  40140c:	85 c0                	test   %eax,%eax
  40140e:	75 43                	jne    401453 <initialize_bomb+0x70>
  401410:	48 8b 3d 69 2f 20 00 	mov    0x202f69(%rip),%rdi        # 604380 <host_table>
  401417:	bb 88 43 60 00       	mov    $0x604388,%ebx
  40141c:	48 85 ff             	test   %rdi,%rdi
  40141f:	74 1e                	je     40143f <initialize_bomb+0x5c>
  401421:	48 8d b4 24 00 20 00 	lea    0x2000(%rsp),%rsi
  401428:	00 
  401429:	e8 02 f7 ff ff       	callq  400b30 <strcasecmp@plt>
  40142e:	85 c0                	test   %eax,%eax
  401430:	74 51                	je     401483 <initialize_bomb+0xa0>
  401432:	48 83 c3 08          	add    $0x8,%rbx
  401436:	48 8b 7b f8          	mov    -0x8(%rbx),%rdi
  40143a:	48 85 ff             	test   %rdi,%rdi
  40143d:	75 e2                	jne    401421 <initialize_bomb+0x3e>
  40143f:	bf c0 2b 40 00       	mov    $0x402bc0,%edi
  401444:	e8 17 f7 ff ff       	callq  400b60 <puts@plt>
  401449:	bf 08 00 00 00       	mov    $0x8,%edi
  40144e:	e8 2d f8 ff ff       	callq  400c80 <exit@plt>
  401453:	bf 88 2b 40 00       	mov    $0x402b88,%edi
  401458:	e8 03 f7 ff ff       	callq  400b60 <puts@plt>
  40145d:	bf 08 00 00 00       	mov    $0x8,%edi
  401462:	e8 19 f8 ff ff       	callq  400c80 <exit@plt>
  401467:	48 89 e6             	mov    %rsp,%rsi
  40146a:	bf 14 31 40 00       	mov    $0x403114,%edi
  40146f:	b8 00 00 00 00       	mov    $0x0,%eax
  401474:	e8 07 f7 ff ff       	callq  400b80 <printf@plt>
  401479:	bf 08 00 00 00       	mov    $0x8,%edi
  40147e:	e8 fd f7 ff ff       	callq  400c80 <exit@plt>
  401483:	48 89 e7             	mov    %rsp,%rdi
  401486:	e8 0a 12 00 00       	callq  402695 <init_driver>
  40148b:	85 c0                	test   %eax,%eax
  40148d:	78 d8                	js     401467 <initialize_bomb+0x84>
  40148f:	48 81 c4 40 20 00 00 	add    $0x2040,%rsp
  401496:	5b                   	pop    %rbx
  401497:	c3                   	retq   

0000000000401498 <welcome_message>:
  401498:	83 ff 01             	cmp    $0x1,%edi
  40149b:	74 01                	je     40149e <welcome_message+0x6>
  40149d:	c3                   	retq   
  40149e:	48 83 ec 08          	sub    $0x8,%rsp
  4014a2:	bf f8 2b 40 00       	mov    $0x402bf8,%edi
  4014a7:	e8 b4 f6 ff ff       	callq  400b60 <puts@plt>
  4014ac:	bf 40 2c 40 00       	mov    $0x402c40,%edi
  4014b1:	e8 aa f6 ff ff       	callq  400b60 <puts@plt>
  4014b6:	bf 88 2c 40 00       	mov    $0x402c88,%edi
  4014bb:	e8 a0 f6 ff ff       	callq  400b60 <puts@plt>
  4014c0:	bf d0 2c 40 00       	mov    $0x402cd0,%edi
  4014c5:	e8 96 f6 ff ff       	callq  400b60 <puts@plt>
  4014ca:	bf d0 2c 40 00       	mov    $0x402cd0,%edi
  4014cf:	e8 8c f6 ff ff       	callq  400b60 <puts@plt>
  4014d4:	bf 18 2d 40 00       	mov    $0x402d18,%edi
  4014d9:	e8 82 f6 ff ff       	callq  400b60 <puts@plt>
  4014de:	bf 60 2d 40 00       	mov    $0x402d60,%edi
  4014e3:	e8 78 f6 ff ff       	callq  400b60 <puts@plt>
  4014e8:	bf a8 2d 40 00       	mov    $0x402da8,%edi
  4014ed:	e8 6e f6 ff ff       	callq  400b60 <puts@plt>
  4014f2:	bf f0 2d 40 00       	mov    $0x402df0,%edi
  4014f7:	e8 64 f6 ff ff       	callq  400b60 <puts@plt>
  4014fc:	bf 38 2e 40 00       	mov    $0x402e38,%edi
  401501:	e8 5a f6 ff ff       	callq  400b60 <puts@plt>
  401506:	bf 80 2e 40 00       	mov    $0x402e80,%edi
  40150b:	e8 50 f6 ff ff       	callq  400b60 <puts@plt>
  401510:	bf c8 2e 40 00       	mov    $0x402ec8,%edi
  401515:	e8 46 f6 ff ff       	callq  400b60 <puts@plt>
  40151a:	bf 10 2f 40 00       	mov    $0x402f10,%edi
  40151f:	e8 3c f6 ff ff       	callq  400b60 <puts@plt>
  401524:	bf 58 2f 40 00       	mov    $0x402f58,%edi
  401529:	e8 32 f6 ff ff       	callq  400b60 <puts@plt>
  40152e:	bf a0 2f 40 00       	mov    $0x402fa0,%edi
  401533:	e8 28 f6 ff ff       	callq  400b60 <puts@plt>
  401538:	bf e8 2f 40 00       	mov    $0x402fe8,%edi
  40153d:	e8 1e f6 ff ff       	callq  400b60 <puts@plt>
  401542:	48 83 c4 08          	add    $0x8,%rsp
  401546:	c3                   	retq   

0000000000401547 <initialize_bomb_solve>:
  401547:	c3                   	retq   

0000000000401548 <blank_line>:
  401548:	55                   	push   %rbp
  401549:	53                   	push   %rbx
  40154a:	48 83 ec 08          	sub    $0x8,%rsp
  40154e:	48 89 fd             	mov    %rdi,%rbp
  401551:	0f b6 5d 00          	movzbl 0x0(%rbp),%ebx
  401555:	84 db                	test   %bl,%bl
  401557:	74 1e                	je     401577 <blank_line+0x2f>
  401559:	e8 52 f7 ff ff       	callq  400cb0 <__ctype_b_loc@plt>
  40155e:	48 83 c5 01          	add    $0x1,%rbp
  401562:	48 0f be db          	movsbq %bl,%rbx
  401566:	48 8b 00             	mov    (%rax),%rax
  401569:	f6 44 58 01 20       	testb  $0x20,0x1(%rax,%rbx,2)
  40156e:	75 e1                	jne    401551 <blank_line+0x9>
  401570:	b8 00 00 00 00       	mov    $0x0,%eax
  401575:	eb 05                	jmp    40157c <blank_line+0x34>
  401577:	b8 01 00 00 00       	mov    $0x1,%eax
  40157c:	48 83 c4 08          	add    $0x8,%rsp
  401580:	5b                   	pop    %rbx
  401581:	5d                   	pop    %rbp
  401582:	c3                   	retq   

0000000000401583 <skip>:
  401583:	53                   	push   %rbx
  401584:	48 63 05 15 32 20 00 	movslq 0x203215(%rip),%rax        # 6047a0 <num_input_strings>
  40158b:	48 8d 3c 80          	lea    (%rax,%rax,4),%rdi
  40158f:	48 c1 e7 04          	shl    $0x4,%rdi
  401593:	48 81 c7 c0 47 60 00 	add    $0x6047c0,%rdi
  40159a:	48 8b 15 07 32 20 00 	mov    0x203207(%rip),%rdx        # 6047a8 <infile>
  4015a1:	be 50 00 00 00       	mov    $0x50,%esi
  4015a6:	e8 25 f6 ff ff       	callq  400bd0 <fgets@plt>
  4015ab:	48 89 c3             	mov    %rax,%rbx
  4015ae:	48 85 c0             	test   %rax,%rax
  4015b1:	74 0c                	je     4015bf <skip+0x3c>
  4015b3:	48 89 c7             	mov    %rax,%rdi
  4015b6:	e8 8d ff ff ff       	callq  401548 <blank_line>
  4015bb:	85 c0                	test   %eax,%eax
  4015bd:	75 c5                	jne    401584 <skip+0x1>
  4015bf:	48 89 d8             	mov    %rbx,%rax
  4015c2:	5b                   	pop    %rbx
  4015c3:	c3                   	retq   

00000000004015c4 <send_msg>:
  4015c4:	48 81 ec 08 40 00 00 	sub    $0x4008,%rsp
  4015cb:	44 8b 05 ce 31 20 00 	mov    0x2031ce(%rip),%r8d        # 6047a0 <num_input_strings>
  4015d2:	41 8d 40 ff          	lea    -0x1(%r8),%eax
  4015d6:	48 98                	cltq   
  4015d8:	48 8d 04 80          	lea    (%rax,%rax,4),%rax
  4015dc:	48 c1 e0 04          	shl    $0x4,%rax
  4015e0:	85 ff                	test   %edi,%edi
  4015e2:	b9 2e 31 40 00       	mov    $0x40312e,%ecx
  4015e7:	ba 36 31 40 00       	mov    $0x403136,%edx
  4015ec:	48 0f 44 ca          	cmove  %rdx,%rcx
  4015f0:	4c 8d 88 c0 47 60 00 	lea    0x6047c0(%rax),%r9
  4015f7:	8b 15 77 2d 20 00    	mov    0x202d77(%rip),%edx        # 604374 <bomb_id>
  4015fd:	be 3f 31 40 00       	mov    $0x40313f,%esi
  401602:	48 8d bc 24 00 20 00 	lea    0x2000(%rsp),%rdi
  401609:	00 
  40160a:	b8 00 00 00 00       	mov    $0x0,%eax
  40160f:	e8 5c f6 ff ff       	callq  400c70 <sprintf@plt>
  401614:	49 89 e0             	mov    %rsp,%r8
  401617:	b9 00 00 00 00       	mov    $0x0,%ecx
  40161c:	48 8d 94 24 00 20 00 	lea    0x2000(%rsp),%rdx
  401623:	00 
  401624:	be 50 43 60 00       	mov    $0x604350,%esi
  401629:	bf 68 43 60 00       	mov    $0x604368,%edi
  40162e:	e8 13 12 00 00       	callq  402846 <driver_post>
  401633:	85 c0                	test   %eax,%eax
  401635:	78 08                	js     40163f <send_msg+0x7b>
  401637:	48 81 c4 08 40 00 00 	add    $0x4008,%rsp
  40163e:	c3                   	retq   
  40163f:	48 89 e7             	mov    %rsp,%rdi
  401642:	e8 19 f5 ff ff       	callq  400b60 <puts@plt>
  401647:	bf 00 00 00 00       	mov    $0x0,%edi
  40164c:	e8 2f f6 ff ff       	callq  400c80 <exit@plt>

0000000000401651 <phase_defused>:
  401651:	48 83 ec 08          	sub    $0x8,%rsp
  401655:	bf 01 00 00 00       	mov    $0x1,%edi
  40165a:	e8 65 ff ff ff       	callq  4015c4 <send_msg>
  40165f:	83 3d 3a 31 20 00 05 	cmpl   $0x5,0x20313a(%rip)        # 6047a0 <num_input_strings>
  401666:	7e 09                	jle    401671 <phase_defused+0x20>
  401668:	83 3d 2d 31 20 00 21 	cmpl   $0x21,0x20312d(%rip)        # 60479c <trap>
  40166f:	75 05                	jne    401676 <phase_defused+0x25>
  401671:	48 83 c4 08          	add    $0x8,%rsp
  401675:	c3                   	retq   
  401676:	bf 30 30 40 00       	mov    $0x403030,%edi
  40167b:	e8 e0 f4 ff ff       	callq  400b60 <puts@plt>
  401680:	bf 60 30 40 00       	mov    $0x403060,%edi
  401685:	e8 d6 f4 ff ff       	callq  400b60 <puts@plt>
  40168a:	eb e5                	jmp    401671 <phase_defused+0x20>

000000000040168c <explode_bomb>:
  40168c:	48 81 ec d8 00 00 00 	sub    $0xd8,%rsp
  401693:	83 3d 06 31 20 00 06 	cmpl   $0x6,0x203106(%rip)        # 6047a0 <num_input_strings>
  40169a:	77 17                	ja     4016b3 <explode_bomb+0x27>
  40169c:	8b 05 fe 30 20 00    	mov    0x2030fe(%rip),%eax        # 6047a0 <num_input_strings>
  4016a2:	ff 24 c5 28 33 40 00 	jmpq   *0x403328(,%rax,8)
  4016a9:	bf 4b 31 40 00       	mov    $0x40314b,%edi
  4016ae:	e8 ad f4 ff ff       	callq  400b60 <puts@plt>
  4016b3:	48 89 e7             	mov    %rsp,%rdi
  4016b6:	b9 19 00 00 00       	mov    $0x19,%ecx
  4016bb:	b8 00 00 00 00       	mov    $0x0,%eax
  4016c0:	f3 48 ab             	rep stos %rax,%es:(%rdi)
  4016c3:	c6 04 24 53          	movb   $0x53,(%rsp)
  4016c7:	c6 44 24 01 6f       	movb   $0x6f,0x1(%rsp)
  4016cc:	c6 44 24 02 20       	movb   $0x20,0x2(%rsp)
  4016d1:	c6 44 24 03 79       	movb   $0x79,0x3(%rsp)
  4016d6:	c6 44 24 04 6f       	movb   $0x6f,0x4(%rsp)
  4016db:	c6 44 24 05 75       	movb   $0x75,0x5(%rsp)
  4016e0:	c6 44 24 06 20       	movb   $0x20,0x6(%rsp)
  4016e5:	c6 44 24 07 6d       	movb   $0x6d,0x7(%rsp)
  4016ea:	c6 44 24 08 61       	movb   $0x61,0x8(%rsp)
  4016ef:	c6 44 24 09 64       	movb   $0x64,0x9(%rsp)
  4016f4:	c6 44 24 0a 65       	movb   $0x65,0xa(%rsp)
  4016f9:	c6 44 24 0b 20       	movb   $0x20,0xb(%rsp)
  4016fe:	c6 44 24 0c 69       	movb   $0x69,0xc(%rsp)
  401703:	c6 44 24 0d 74       	movb   $0x74,0xd(%rsp)
  401708:	c6 44 24 0e 20       	movb   $0x20,0xe(%rsp)
  40170d:	c6 44 24 0f 74       	movb   $0x74,0xf(%rsp)
  401712:	c6 44 24 10 6f       	movb   $0x6f,0x10(%rsp)
  401717:	c6 44 24 11 20       	movb   $0x20,0x11(%rsp)
  40171c:	c6 44 24 12 74       	movb   $0x74,0x12(%rsp)
  401721:	c6 44 24 13 68       	movb   $0x68,0x13(%rsp)
  401726:	c6 44 24 14 65       	movb   $0x65,0x14(%rsp)
  40172b:	c6 44 24 15 20       	movb   $0x20,0x15(%rsp)
  401730:	c6 44 24 16 73       	movb   $0x73,0x16(%rsp)
  401735:	c6 44 24 17 33       	movb   $0x33,0x17(%rsp)
  40173a:	c6 44 24 18 63       	movb   $0x63,0x18(%rsp)
  40173f:	c6 44 24 19 72       	movb   $0x72,0x19(%rsp)
  401744:	c6 44 24 1a 65       	movb   $0x65,0x1a(%rsp)
  401749:	c6 44 24 1b 74       	movb   $0x74,0x1b(%rsp)
  40174e:	c6 44 24 1c 20       	movb   $0x20,0x1c(%rsp)
  401753:	c6 44 24 1d 70       	movb   $0x70,0x1d(%rsp)
  401758:	c6 44 24 1e 68       	movb   $0x68,0x1e(%rsp)
  40175d:	c6 44 24 1f 61       	movb   $0x61,0x1f(%rsp)
  401762:	c6 44 24 20 73       	movb   $0x73,0x20(%rsp)
  401767:	c6 44 24 21 65       	movb   $0x65,0x21(%rsp)
  40176c:	c6 44 24 22 2e       	movb   $0x2e,0x22(%rsp)
  401771:	c6 44 24 23 20       	movb   $0x20,0x23(%rsp)
  401776:	c6 44 24 24 20       	movb   $0x20,0x24(%rsp)
  40177b:	c6 44 24 25 4e       	movb   $0x4e,0x25(%rsp)
  401780:	c6 44 24 26 69       	movb   $0x69,0x26(%rsp)
  401785:	c6 44 24 27 63       	movb   $0x63,0x27(%rsp)
  40178a:	c6 44 24 28 65       	movb   $0x65,0x28(%rsp)
  40178f:	c6 44 24 29 2c       	movb   $0x2c,0x29(%rsp)
  401794:	c6 44 24 2a 20       	movb   $0x20,0x2a(%rsp)
  401799:	c6 44 24 2b 62       	movb   $0x62,0x2b(%rsp)
  40179e:	c6 44 24 2c 75       	movb   $0x75,0x2c(%rsp)
  4017a3:	c6 44 24 2d 74       	movb   $0x74,0x2d(%rsp)
  4017a8:	c6 44 24 2e 0a       	movb   $0xa,0x2e(%rsp)
  4017ad:	c6 44 24 2f 64       	movb   $0x64,0x2f(%rsp)
  4017b2:	c6 44 24 30 6f       	movb   $0x6f,0x30(%rsp)
  4017b7:	c6 44 24 31 6e       	movb   $0x6e,0x31(%rsp)
  4017bc:	c6 44 24 32 27       	movb   $0x27,0x32(%rsp)
  4017c1:	c6 44 24 33 74       	movb   $0x74,0x33(%rsp)
  4017c6:	c6 44 24 34 20       	movb   $0x20,0x34(%rsp)
  4017cb:	c6 44 24 35 74       	movb   $0x74,0x35(%rsp)
  4017d0:	c6 44 24 36 65       	movb   $0x65,0x36(%rsp)
  4017d5:	c6 44 24 37 6c       	movb   $0x6c,0x37(%rsp)
  4017da:	c6 44 24 38 6c       	movb   $0x6c,0x38(%rsp)
  4017df:	c6 44 24 39 20       	movb   $0x20,0x39(%rsp)
  4017e4:	c6 44 24 3a 61       	movb   $0x61,0x3a(%rsp)
  4017e9:	c6 44 24 3b 6e       	movb   $0x6e,0x3b(%rsp)
  4017ee:	c6 44 24 3c 79       	movb   $0x79,0x3c(%rsp)
  4017f3:	c6 44 24 3d 6f       	movb   $0x6f,0x3d(%rsp)
  4017f8:	c6 44 24 3e 6e       	movb   $0x6e,0x3e(%rsp)
  4017fd:	c6 44 24 3f 65       	movb   $0x65,0x3f(%rsp)
  401802:	c6 44 24 40 20       	movb   $0x20,0x40(%rsp)
  401807:	c6 44 24 41 61       	movb   $0x61,0x41(%rsp)
  40180c:	c6 44 24 42 62       	movb   $0x62,0x42(%rsp)
  401811:	c6 44 24 43 6f       	movb   $0x6f,0x43(%rsp)
  401816:	c6 44 24 44 75       	movb   $0x75,0x44(%rsp)
  40181b:	c6 44 24 45 74       	movb   $0x74,0x45(%rsp)
  401820:	c6 44 24 46 20       	movb   $0x20,0x46(%rsp)
  401825:	c6 44 24 47 69       	movb   $0x69,0x47(%rsp)
  40182a:	c6 44 24 48 74       	movb   $0x74,0x48(%rsp)
  40182f:	c6 44 24 49 20       	movb   $0x20,0x49(%rsp)
  401834:	c6 44 24 4a 28       	movb   $0x28,0x4a(%rsp)
  401839:	c6 44 24 4b 65       	movb   $0x65,0x4b(%rsp)
  40183e:	c6 44 24 4c 73       	movb   $0x73,0x4c(%rsp)
  401843:	c6 44 24 4d 70       	movb   $0x70,0x4d(%rsp)
  401848:	c6 44 24 4e 65       	movb   $0x65,0x4e(%rsp)
  40184d:	c6 44 24 4f 63       	movb   $0x63,0x4f(%rsp)
  401852:	c6 44 24 50 69       	movb   $0x69,0x50(%rsp)
  401857:	c6 44 24 51 61       	movb   $0x61,0x51(%rsp)
  40185c:	c6 44 24 52 6c       	movb   $0x6c,0x52(%rsp)
  401861:	c6 44 24 53 6c       	movb   $0x6c,0x53(%rsp)
  401866:	c6 44 24 54 79       	movb   $0x79,0x54(%rsp)
  40186b:	c6 44 24 55 20       	movb   $0x20,0x55(%rsp)
  401870:	c6 44 24 56 6f       	movb   $0x6f,0x56(%rsp)
  401875:	c6 44 24 57 6e       	movb   $0x6e,0x57(%rsp)
  40187a:	c6 44 24 58 20       	movb   $0x20,0x58(%rsp)
  40187f:	c6 44 24 59 50       	movb   $0x50,0x59(%rsp)
  401884:	c6 44 24 5a 69       	movb   $0x69,0x5a(%rsp)
  401889:	c6 44 24 5b 61       	movb   $0x61,0x5b(%rsp)
  40188e:	c6 44 24 5c 7a       	movb   $0x7a,0x5c(%rsp)
  401893:	c6 44 24 5d 7a       	movb   $0x7a,0x5d(%rsp)
  401898:	c6 44 24 5e 61       	movb   $0x61,0x5e(%rsp)
  40189d:	c6 44 24 5f 29       	movb   $0x29,0x5f(%rsp)
  4018a2:	c6 44 24 60 2e       	movb   $0x2e,0x60(%rsp)
  4018a7:	c6 44 24 61 0a       	movb   $0xa,0x61(%rsp)
  4018ac:	c6 44 24 62 49       	movb   $0x49,0x62(%rsp)
  4018b1:	c6 44 24 63 66       	movb   $0x66,0x63(%rsp)
  4018b6:	c6 44 24 64 20       	movb   $0x20,0x64(%rsp)
  4018bb:	c6 44 24 65 79       	movb   $0x79,0x65(%rsp)
  4018c0:	c6 44 24 66 6f       	movb   $0x6f,0x66(%rsp)
  4018c5:	c6 44 24 67 75       	movb   $0x75,0x67(%rsp)
  4018ca:	c6 44 24 68 20       	movb   $0x20,0x68(%rsp)
  4018cf:	c6 44 24 69 64       	movb   $0x64,0x69(%rsp)
  4018d4:	c6 44 24 6a 6f       	movb   $0x6f,0x6a(%rsp)
  4018d9:	c6 44 24 6b 20       	movb   $0x20,0x6b(%rsp)
  4018de:	c6 44 24 6c 79       	movb   $0x79,0x6c(%rsp)
  4018e3:	c6 44 24 6d 6f       	movb   $0x6f,0x6d(%rsp)
  4018e8:	c6 44 24 6e 75       	movb   $0x75,0x6e(%rsp)
  4018ed:	c6 44 24 6f 20       	movb   $0x20,0x6f(%rsp)
  4018f2:	c6 44 24 70 77       	movb   $0x77,0x70(%rsp)
  4018f7:	c6 44 24 71 6f       	movb   $0x6f,0x71(%rsp)
  4018fc:	c6 44 24 72 6e       	movb   $0x6e,0x72(%rsp)
  401901:	c6 44 24 73 27       	movb   $0x27,0x73(%rsp)
  401906:	c6 44 24 74 74       	movb   $0x74,0x74(%rsp)
  40190b:	c6 44 24 75 20       	movb   $0x20,0x75(%rsp)
  401910:	c6 44 24 76 67       	movb   $0x67,0x76(%rsp)
  401915:	c6 44 24 77 65       	movb   $0x65,0x77(%rsp)
  40191a:	c6 44 24 78 74       	movb   $0x74,0x78(%rsp)
  40191f:	c6 44 24 79 20       	movb   $0x20,0x79(%rsp)
  401924:	c6 44 24 7a 61       	movb   $0x61,0x7a(%rsp)
  401929:	c6 44 24 7b 6e       	movb   $0x6e,0x7b(%rsp)
  40192e:	c6 44 24 7c 79       	movb   $0x79,0x7c(%rsp)
  401933:	c6 44 24 7d 20       	movb   $0x20,0x7d(%rsp)
  401938:	c6 44 24 7e 65       	movb   $0x65,0x7e(%rsp)
  40193d:	c6 44 24 7f 78       	movb   $0x78,0x7f(%rsp)
  401942:	c6 84 24 80 00 00 00 	movb   $0x74,0x80(%rsp)
  401949:	74 
  40194a:	c6 84 24 81 00 00 00 	movb   $0x72,0x81(%rsp)
  401951:	72 
  401952:	c6 84 24 82 00 00 00 	movb   $0x61,0x82(%rsp)
  401959:	61 
  40195a:	c6 84 24 83 00 00 00 	movb   $0x20,0x83(%rsp)
  401961:	20 
  401962:	c6 84 24 84 00 00 00 	movb   $0x63,0x84(%rsp)
  401969:	63 
  40196a:	c6 84 24 85 00 00 00 	movb   $0x72,0x85(%rsp)
  401971:	72 
  401972:	c6 84 24 86 00 00 00 	movb   $0x65,0x86(%rsp)
  401979:	65 
  40197a:	c6 84 24 87 00 00 00 	movb   $0x64,0x87(%rsp)
  401981:	64 
  401982:	c6 84 24 88 00 00 00 	movb   $0x69,0x88(%rsp)
  401989:	69 
  40198a:	c6 84 24 89 00 00 00 	movb   $0x74,0x89(%rsp)
  401991:	74 
  401992:	c6 84 24 8a 00 00 00 	movb   $0x21,0x8a(%rsp)
  401999:	21 
  40199a:	c6 84 24 8b 00 00 00 	movb   $0x20,0x8b(%rsp)
  4019a1:	20 
  4019a2:	c6 84 24 8c 00 00 00 	movb   $0x61,0x8c(%rsp)
  4019a9:	61 
  4019aa:	c6 84 24 8d 00 00 00 	movb   $0x6e,0x8d(%rsp)
  4019b1:	6e 
  4019b2:	c6 84 24 8e 00 00 00 	movb   $0x79,0x8e(%rsp)
  4019b9:	79 
  4019ba:	c6 84 24 8f 00 00 00 	movb   $0x77,0x8f(%rsp)
  4019c1:	77 
  4019c2:	c6 84 24 90 00 00 00 	movb   $0x61,0x90(%rsp)
  4019c9:	61 
  4019ca:	c6 84 24 91 00 00 00 	movb   $0x79,0x91(%rsp)
  4019d1:	79 
  4019d2:	c6 84 24 92 00 00 00 	movb   $0x73,0x92(%rsp)
  4019d9:	73 
  4019da:	c6 84 24 93 00 00 00 	movb   $0x2c,0x93(%rsp)
  4019e1:	2c 
  4019e2:	c6 84 24 94 00 00 00 	movb   $0xa,0x94(%rsp)
  4019e9:	0a 
  4019ea:	c6 84 24 95 00 00 00 	movb   $0x66,0x95(%rsp)
  4019f1:	66 
  4019f2:	c6 84 24 96 00 00 00 	movb   $0x69,0x96(%rsp)
  4019f9:	69 
  4019fa:	c6 84 24 97 00 00 00 	movb   $0x6e,0x97(%rsp)
  401a01:	6e 
  401a02:	c6 84 24 98 00 00 00 	movb   $0x64,0x98(%rsp)
  401a09:	64 
  401a0a:	c6 84 24 99 00 00 00 	movb   $0x69,0x99(%rsp)
  401a11:	69 
  401a12:	c6 84 24 9a 00 00 00 	movb   $0x6e,0x9a(%rsp)
  401a19:	6e 
  401a1a:	c6 84 24 9b 00 00 00 	movb   $0x67,0x9b(%rsp)
  401a21:	67 
  401a22:	c6 84 24 9c 00 00 00 	movb   $0x20,0x9c(%rsp)
  401a29:	20 
  401a2a:	c6 84 24 9d 00 00 00 	movb   $0x69,0x9d(%rsp)
  401a31:	69 
  401a32:	c6 84 24 9e 00 00 00 	movb   $0x74,0x9e(%rsp)
  401a39:	74 
  401a3a:	c6 84 24 9f 00 00 00 	movb   $0x20,0x9f(%rsp)
  401a41:	20 
  401a42:	c6 84 24 a0 00 00 00 	movb   $0x61,0xa0(%rsp)
  401a49:	61 
  401a4a:	c6 84 24 a1 00 00 00 	movb   $0x6e,0xa1(%rsp)
  401a51:	6e 
  401a52:	c6 84 24 a2 00 00 00 	movb   $0x64,0xa2(%rsp)
  401a59:	64 
  401a5a:	c6 84 24 a3 00 00 00 	movb   $0x20,0xa3(%rsp)
  401a61:	20 
  401a62:	c6 84 24 a4 00 00 00 	movb   $0x73,0xa4(%rsp)
  401a69:	73 
  401a6a:	c6 84 24 a5 00 00 00 	movb   $0x6f,0xa5(%rsp)
  401a71:	6f 
  401a72:	c6 84 24 a6 00 00 00 	movb   $0x6c,0xa6(%rsp)
  401a79:	6c 
  401a7a:	c6 84 24 a7 00 00 00 	movb   $0x76,0xa7(%rsp)
  401a81:	76 
  401a82:	c6 84 24 a8 00 00 00 	movb   $0x69,0xa8(%rsp)
  401a89:	69 
  401a8a:	c6 84 24 a9 00 00 00 	movb   $0x6e,0xa9(%rsp)
  401a91:	6e 
  401a92:	c6 84 24 aa 00 00 00 	movb   $0x67,0xaa(%rsp)
  401a99:	67 
  401a9a:	c6 84 24 ab 00 00 00 	movb   $0x20,0xab(%rsp)
  401aa1:	20 
  401aa2:	c6 84 24 ac 00 00 00 	movb   $0x69,0xac(%rsp)
  401aa9:	69 
  401aaa:	c6 84 24 ad 00 00 00 	movb   $0x74,0xad(%rsp)
  401ab1:	74 
  401ab2:	c6 84 24 ae 00 00 00 	movb   $0x20,0xae(%rsp)
  401ab9:	20 
  401aba:	c6 84 24 af 00 00 00 	movb   $0x61,0xaf(%rsp)
  401ac1:	61 
  401ac2:	c6 84 24 b0 00 00 00 	movb   $0x72,0xb0(%rsp)
  401ac9:	72 
  401aca:	c6 84 24 b1 00 00 00 	movb   $0x65,0xb1(%rsp)
  401ad1:	65 
  401ad2:	c6 84 24 b2 00 00 00 	movb   $0x20,0xb2(%rsp)
  401ad9:	20 
  401ada:	c6 84 24 b3 00 00 00 	movb   $0x71,0xb3(%rsp)
  401ae1:	71 
  401ae2:	c6 84 24 b4 00 00 00 	movb   $0x75,0xb4(%rsp)
  401ae9:	75 
  401aea:	c6 84 24 b5 00 00 00 	movb   $0x69,0xb5(%rsp)
  401af1:	69 
  401af2:	c6 84 24 b6 00 00 00 	movb   $0x74,0xb6(%rsp)
  401af9:	74 
  401afa:	c6 84 24 b7 00 00 00 	movb   $0x65,0xb7(%rsp)
  401b01:	65 
  401b02:	c6 84 24 b8 00 00 00 	movb   $0x20,0xb8(%rsp)
  401b09:	20 
  401b0a:	c6 84 24 b9 00 00 00 	movb   $0x64,0xb9(%rsp)
  401b11:	64 
  401b12:	c6 84 24 ba 00 00 00 	movb   $0x69,0xba(%rsp)
  401b19:	69 
  401b1a:	c6 84 24 bb 00 00 00 	movb   $0x66,0xbb(%rsp)
  401b21:	66 
  401b22:	c6 84 24 bc 00 00 00 	movb   $0x66,0xbc(%rsp)
  401b29:	66 
  401b2a:	c6 84 24 bd 00 00 00 	movb   $0x65,0xbd(%rsp)
  401b31:	65 
  401b32:	c6 84 24 be 00 00 00 	movb   $0x72,0xbe(%rsp)
  401b39:	72 
  401b3a:	c6 84 24 bf 00 00 00 	movb   $0x65,0xbf(%rsp)
  401b41:	65 
  401b42:	c6 84 24 c0 00 00 00 	movb   $0x6e,0xc0(%rsp)
  401b49:	6e 
  401b4a:	c6 84 24 c1 00 00 00 	movb   $0x74,0xc1(%rsp)
  401b51:	74 
  401b52:	c6 84 24 c2 00 00 00 	movb   $0x2e,0xc2(%rsp)
  401b59:	2e 
  401b5a:	c6 84 24 c3 00 00 00 	movb   $0x2e,0xc3(%rsp)
  401b61:	2e 
  401b62:	c6 84 24 c4 00 00 00 	movb   $0x2e,0xc4(%rsp)
  401b69:	2e 
  401b6a:	83 3d 2f 2c 20 00 06 	cmpl   $0x6,0x202c2f(%rip)        # 6047a0 <num_input_strings>
  401b71:	75 0d                	jne    401b80 <explode_bomb+0x4f4>
  401b73:	83 3d 22 2c 20 00 21 	cmpl   $0x21,0x202c22(%rip)        # 60479c <trap>
  401b7a:	0f 84 8c 00 00 00    	je     401c0c <explode_bomb+0x580>
  401b80:	bf a5 31 40 00       	mov    $0x4031a5,%edi
  401b85:	e8 d6 ef ff ff       	callq  400b60 <puts@plt>
  401b8a:	bf ae 31 40 00       	mov    $0x4031ae,%edi
  401b8f:	e8 cc ef ff ff       	callq  400b60 <puts@plt>
  401b94:	bf 00 00 00 00       	mov    $0x0,%edi
  401b99:	e8 26 fa ff ff       	callq  4015c4 <send_msg>
  401b9e:	bf d0 30 40 00       	mov    $0x4030d0,%edi
  401ba3:	e8 b8 ef ff ff       	callq  400b60 <puts@plt>
  401ba8:	bf 08 00 00 00       	mov    $0x8,%edi
  401bad:	e8 ce f0 ff ff       	callq  400c80 <exit@plt>
  401bb2:	bf a8 30 40 00       	mov    $0x4030a8,%edi
  401bb7:	e8 a4 ef ff ff       	callq  400b60 <puts@plt>
  401bbc:	e9 f2 fa ff ff       	jmpq   4016b3 <explode_bomb+0x27>
  401bc1:	bf 50 31 40 00       	mov    $0x403150,%edi
  401bc6:	e8 95 ef ff ff       	callq  400b60 <puts@plt>
  401bcb:	e9 e3 fa ff ff       	jmpq   4016b3 <explode_bomb+0x27>
  401bd0:	bf 65 31 40 00       	mov    $0x403165,%edi
  401bd5:	e8 86 ef ff ff       	callq  400b60 <puts@plt>
  401bda:	e9 d4 fa ff ff       	jmpq   4016b3 <explode_bomb+0x27>
  401bdf:	bf 7b 31 40 00       	mov    $0x40317b,%edi
  401be4:	e8 77 ef ff ff       	callq  400b60 <puts@plt>
  401be9:	e9 c5 fa ff ff       	jmpq   4016b3 <explode_bomb+0x27>
  401bee:	bf 92 31 40 00       	mov    $0x403192,%edi
  401bf3:	e8 68 ef ff ff       	callq  400b60 <puts@plt>
  401bf8:	e9 b6 fa ff ff       	jmpq   4016b3 <explode_bomb+0x27>
  401bfd:	bf 9b 31 40 00       	mov    $0x40319b,%edi
  401c02:	e8 59 ef ff ff       	callq  400b60 <puts@plt>
  401c07:	e9 a7 fa ff ff       	jmpq   4016b3 <explode_bomb+0x27>
  401c0c:	48 89 e7             	mov    %rsp,%rdi
  401c0f:	e8 4c ef ff ff       	callq  400b60 <puts@plt>
  401c14:	e8 38 fa ff ff       	callq  401651 <phase_defused>
  401c19:	c7 05 79 2b 20 00 00 	movl   $0x0,0x202b79(%rip)        # 60479c <trap>
  401c20:	00 00 00 
  401c23:	b8 00 00 00 00       	mov    $0x0,%eax
  401c28:	e8 65 f6 ff ff       	callq  401292 <s3cret_phase>
  401c2d:	bf 00 00 00 00       	mov    $0x0,%edi
  401c32:	e8 49 f0 ff ff       	callq  400c80 <exit@plt>

0000000000401c37 <read_six_numbers>:
  401c37:	48 83 ec 08          	sub    $0x8,%rsp
  401c3b:	48 89 f2             	mov    %rsi,%rdx
  401c3e:	48 8d 4e 04          	lea    0x4(%rsi),%rcx
  401c42:	48 8d 46 14          	lea    0x14(%rsi),%rax
  401c46:	50                   	push   %rax
  401c47:	48 8d 46 10          	lea    0x10(%rsi),%rax
  401c4b:	50                   	push   %rax
  401c4c:	4c 8d 4e 0c          	lea    0xc(%rsi),%r9
  401c50:	4c 8d 46 08          	lea    0x8(%rsi),%r8
  401c54:	be c5 31 40 00       	mov    $0x4031c5,%esi
  401c59:	b8 00 00 00 00       	mov    $0x0,%eax
  401c5e:	e8 cd ef ff ff       	callq  400c30 <__isoc99_sscanf@plt>
  401c63:	48 83 c4 10          	add    $0x10,%rsp
  401c67:	83 f8 05             	cmp    $0x5,%eax
  401c6a:	7e 05                	jle    401c71 <read_six_numbers+0x3a>
  401c6c:	48 83 c4 08          	add    $0x8,%rsp
  401c70:	c3                   	retq   
  401c71:	e8 16 fa ff ff       	callq  40168c <explode_bomb>

0000000000401c76 <read_line>:
  401c76:	48 83 ec 08          	sub    $0x8,%rsp
  401c7a:	b8 00 00 00 00       	mov    $0x0,%eax
  401c7f:	e8 ff f8 ff ff       	callq  401583 <skip>
  401c84:	48 85 c0             	test   %rax,%rax
  401c87:	74 63                	je     401cec <read_line+0x76>
  401c89:	8b 35 11 2b 20 00    	mov    0x202b11(%rip),%esi        # 6047a0 <num_input_strings>
  401c8f:	48 63 c6             	movslq %esi,%rax
  401c92:	48 8d 14 80          	lea    (%rax,%rax,4),%rdx
  401c96:	48 c1 e2 04          	shl    $0x4,%rdx
  401c9a:	48 81 c2 c0 47 60 00 	add    $0x6047c0,%rdx
  401ca1:	48 c7 c1 ff ff ff ff 	mov    $0xffffffffffffffff,%rcx
  401ca8:	b8 00 00 00 00       	mov    $0x0,%eax
  401cad:	48 89 d7             	mov    %rdx,%rdi
  401cb0:	f2 ae                	repnz scas %es:(%rdi),%al
  401cb2:	48 f7 d1             	not    %rcx
  401cb5:	48 83 e9 01          	sub    $0x1,%rcx
  401cb9:	83 f9 4e             	cmp    $0x4e,%ecx
  401cbc:	0f 8f 9c 00 00 00    	jg     401d5e <read_line+0xe8>
  401cc2:	83 e9 01             	sub    $0x1,%ecx
  401cc5:	48 63 c9             	movslq %ecx,%rcx
  401cc8:	48 63 c6             	movslq %esi,%rax
  401ccb:	48 8d 04 80          	lea    (%rax,%rax,4),%rax
  401ccf:	48 c1 e0 04          	shl    $0x4,%rax
  401cd3:	c6 84 01 c0 47 60 00 	movb   $0x0,0x6047c0(%rcx,%rax,1)
  401cda:	00 
  401cdb:	8d 46 01             	lea    0x1(%rsi),%eax
  401cde:	89 05 bc 2a 20 00    	mov    %eax,0x202abc(%rip)        # 6047a0 <num_input_strings>
  401ce4:	48 89 d0             	mov    %rdx,%rax
  401ce7:	48 83 c4 08          	add    $0x8,%rsp
  401ceb:	c3                   	retq   
  401cec:	48 8b 05 95 2a 20 00 	mov    0x202a95(%rip),%rax        # 604788 <stdin@@GLIBC_2.2.5>
  401cf3:	48 39 05 ae 2a 20 00 	cmp    %rax,0x202aae(%rip)        # 6047a8 <infile>
  401cfa:	74 19                	je     401d15 <read_line+0x9f>
  401cfc:	bf f5 31 40 00       	mov    $0x4031f5,%edi
  401d01:	e8 1a ee ff ff       	callq  400b20 <getenv@plt>
  401d06:	48 85 c0             	test   %rax,%rax
  401d09:	74 1e                	je     401d29 <read_line+0xb3>
  401d0b:	bf 00 00 00 00       	mov    $0x0,%edi
  401d10:	e8 6b ef ff ff       	callq  400c80 <exit@plt>
  401d15:	bf d7 31 40 00       	mov    $0x4031d7,%edi
  401d1a:	e8 41 ee ff ff       	callq  400b60 <puts@plt>
  401d1f:	bf 08 00 00 00       	mov    $0x8,%edi
  401d24:	e8 57 ef ff ff       	callq  400c80 <exit@plt>
  401d29:	48 8b 05 58 2a 20 00 	mov    0x202a58(%rip),%rax        # 604788 <stdin@@GLIBC_2.2.5>
  401d30:	48 89 05 71 2a 20 00 	mov    %rax,0x202a71(%rip)        # 6047a8 <infile>
  401d37:	b8 00 00 00 00       	mov    $0x0,%eax
  401d3c:	e8 42 f8 ff ff       	callq  401583 <skip>
  401d41:	48 85 c0             	test   %rax,%rax
  401d44:	0f 85 3f ff ff ff    	jne    401c89 <read_line+0x13>
  401d4a:	bf d7 31 40 00       	mov    $0x4031d7,%edi
  401d4f:	e8 0c ee ff ff       	callq  400b60 <puts@plt>
  401d54:	bf 00 00 00 00       	mov    $0x0,%edi
  401d59:	e8 22 ef ff ff       	callq  400c80 <exit@plt>
  401d5e:	bf 00 32 40 00       	mov    $0x403200,%edi
  401d63:	e8 f8 ed ff ff       	callq  400b60 <puts@plt>
  401d68:	8b 05 32 2a 20 00    	mov    0x202a32(%rip),%eax        # 6047a0 <num_input_strings>
  401d6e:	8d 50 01             	lea    0x1(%rax),%edx
  401d71:	89 15 29 2a 20 00    	mov    %edx,0x202a29(%rip)        # 6047a0 <num_input_strings>
  401d77:	48 98                	cltq   
  401d79:	48 6b c0 50          	imul   $0x50,%rax,%rax
  401d7d:	48 be 2a 2a 2a 74 72 	mov    $0x636e7572742a2a2a,%rsi
  401d84:	75 6e 63 
  401d87:	48 bf 61 74 65 64 2a 	mov    $0x2a2a2a64657461,%rdi
  401d8e:	2a 2a 00 
  401d91:	48 89 b0 c0 47 60 00 	mov    %rsi,0x6047c0(%rax)
  401d98:	48 89 b8 c8 47 60 00 	mov    %rdi,0x6047c8(%rax)
  401d9f:	e8 e8 f8 ff ff       	callq  40168c <explode_bomb>

0000000000401da4 <sigalrm_handler>:
  401da4:	48 83 ec 08          	sub    $0x8,%rsp
  401da8:	ba 00 00 00 00       	mov    $0x0,%edx
  401dad:	be 60 33 40 00       	mov    $0x403360,%esi
  401db2:	48 8b 3d d7 29 20 00 	mov    0x2029d7(%rip),%rdi        # 604790 <stderr@@GLIBC_2.2.5>
  401db9:	b8 00 00 00 00       	mov    $0x0,%eax
  401dbe:	e8 3d ee ff ff       	callq  400c00 <fprintf@plt>
  401dc3:	bf 01 00 00 00       	mov    $0x1,%edi
  401dc8:	e8 b3 ee ff ff       	callq  400c80 <exit@plt>

0000000000401dcd <rio_readlineb>:
  401dcd:	41 56                	push   %r14
  401dcf:	41 55                	push   %r13
  401dd1:	41 54                	push   %r12
  401dd3:	55                   	push   %rbp
  401dd4:	53                   	push   %rbx
  401dd5:	48 89 f5             	mov    %rsi,%rbp
  401dd8:	48 83 fa 01          	cmp    $0x1,%rdx
  401ddc:	0f 86 9d 00 00 00    	jbe    401e7f <rio_readlineb+0xb2>
  401de2:	48 89 fb             	mov    %rdi,%rbx
  401de5:	4c 8d 74 16 ff       	lea    -0x1(%rsi,%rdx,1),%r14
  401dea:	41 bd 01 00 00 00    	mov    $0x1,%r13d
  401df0:	4c 8d 67 10          	lea    0x10(%rdi),%r12
  401df4:	eb 17                	jmp    401e0d <rio_readlineb+0x40>
  401df6:	e8 45 ed ff ff       	callq  400b40 <__errno_location@plt>
  401dfb:	83 38 04             	cmpl   $0x4,(%rax)
  401dfe:	74 0d                	je     401e0d <rio_readlineb+0x40>
  401e00:	48 c7 c0 ff ff ff ff 	mov    $0xffffffffffffffff,%rax
  401e07:	eb 28                	jmp    401e31 <rio_readlineb+0x64>
  401e09:	4c 89 63 08          	mov    %r12,0x8(%rbx)
  401e0d:	8b 43 04             	mov    0x4(%rbx),%eax
  401e10:	85 c0                	test   %eax,%eax
  401e12:	7f 2e                	jg     401e42 <rio_readlineb+0x75>
  401e14:	ba 00 20 00 00       	mov    $0x2000,%edx
  401e19:	4c 89 e6             	mov    %r12,%rsi
  401e1c:	8b 3b                	mov    (%rbx),%edi
  401e1e:	e8 8d ed ff ff       	callq  400bb0 <read@plt>
  401e23:	89 43 04             	mov    %eax,0x4(%rbx)
  401e26:	85 c0                	test   %eax,%eax
  401e28:	78 cc                	js     401df6 <rio_readlineb+0x29>
  401e2a:	75 dd                	jne    401e09 <rio_readlineb+0x3c>
  401e2c:	b8 00 00 00 00       	mov    $0x0,%eax
  401e31:	85 c0                	test   %eax,%eax
  401e33:	75 52                	jne    401e87 <rio_readlineb+0xba>
  401e35:	b8 00 00 00 00       	mov    $0x0,%eax
  401e3a:	41 83 fd 01          	cmp    $0x1,%r13d
  401e3e:	75 2f                	jne    401e6f <rio_readlineb+0xa2>
  401e40:	eb 34                	jmp    401e76 <rio_readlineb+0xa9>
  401e42:	48 8b 53 08          	mov    0x8(%rbx),%rdx
  401e46:	0f b6 0a             	movzbl (%rdx),%ecx
  401e49:	48 83 c2 01          	add    $0x1,%rdx
  401e4d:	48 89 53 08          	mov    %rdx,0x8(%rbx)
  401e51:	83 e8 01             	sub    $0x1,%eax
  401e54:	89 43 04             	mov    %eax,0x4(%rbx)
  401e57:	48 83 c5 01          	add    $0x1,%rbp
  401e5b:	88 4d ff             	mov    %cl,-0x1(%rbp)
  401e5e:	80 f9 0a             	cmp    $0xa,%cl
  401e61:	74 0c                	je     401e6f <rio_readlineb+0xa2>
  401e63:	41 83 c5 01          	add    $0x1,%r13d
  401e67:	4c 39 f5             	cmp    %r14,%rbp
  401e6a:	75 a1                	jne    401e0d <rio_readlineb+0x40>
  401e6c:	4c 89 f5             	mov    %r14,%rbp
  401e6f:	c6 45 00 00          	movb   $0x0,0x0(%rbp)
  401e73:	49 63 c5             	movslq %r13d,%rax
  401e76:	5b                   	pop    %rbx
  401e77:	5d                   	pop    %rbp
  401e78:	41 5c                	pop    %r12
  401e7a:	41 5d                	pop    %r13
  401e7c:	41 5e                	pop    %r14
  401e7e:	c3                   	retq   
  401e7f:	41 bd 01 00 00 00    	mov    $0x1,%r13d
  401e85:	eb e8                	jmp    401e6f <rio_readlineb+0xa2>
  401e87:	48 c7 c0 ff ff ff ff 	mov    $0xffffffffffffffff,%rax
  401e8e:	eb e6                	jmp    401e76 <rio_readlineb+0xa9>

0000000000401e90 <submitr>:
  401e90:	41 57                	push   %r15
  401e92:	41 56                	push   %r14
  401e94:	41 55                	push   %r13
  401e96:	41 54                	push   %r12
  401e98:	55                   	push   %rbp
  401e99:	53                   	push   %rbx
  401e9a:	48 81 ec 68 a0 00 00 	sub    $0xa068,%rsp
  401ea1:	48 89 fd             	mov    %rdi,%rbp
  401ea4:	41 89 f5             	mov    %esi,%r13d
  401ea7:	48 89 14 24          	mov    %rdx,(%rsp)
  401eab:	48 89 4c 24 08       	mov    %rcx,0x8(%rsp)
  401eb0:	4c 89 44 24 18       	mov    %r8,0x18(%rsp)
  401eb5:	4c 89 4c 24 10       	mov    %r9,0x10(%rsp)
  401eba:	48 8b 9c 24 a0 a0 00 	mov    0xa0a0(%rsp),%rbx
  401ec1:	00 
  401ec2:	4c 8b bc 24 a8 a0 00 	mov    0xa0a8(%rsp),%r15
  401ec9:	00 
  401eca:	c7 84 24 3c 20 00 00 	movl   $0x0,0x203c(%rsp)
  401ed1:	00 00 00 00 
  401ed5:	ba 00 00 00 00       	mov    $0x0,%edx
  401eda:	be 01 00 00 00       	mov    $0x1,%esi
  401edf:	bf 02 00 00 00       	mov    $0x2,%edi
  401ee4:	e8 d7 ed ff ff       	callq  400cc0 <socket@plt>
  401ee9:	85 c0                	test   %eax,%eax
  401eeb:	0f 88 2f 01 00 00    	js     402020 <submitr+0x190>
  401ef1:	41 89 c4             	mov    %eax,%r12d
  401ef4:	48 89 ef             	mov    %rbp,%rdi
  401ef7:	e8 f4 ec ff ff       	callq  400bf0 <gethostbyname@plt>
  401efc:	48 85 c0             	test   %rax,%rax
  401eff:	0f 84 6b 01 00 00    	je     402070 <submitr+0x1e0>
  401f05:	48 8d 8c 24 50 a0 00 	lea    0xa050(%rsp),%rcx
  401f0c:	00 
  401f0d:	48 c7 84 24 52 a0 00 	movq   $0x0,0xa052(%rsp)
  401f14:	00 00 00 00 00 
  401f19:	c7 84 24 5a a0 00 00 	movl   $0x0,0xa05a(%rsp)
  401f20:	00 00 00 00 
  401f24:	66 c7 84 24 5e a0 00 	movw   $0x0,0xa05e(%rsp)
  401f2b:	00 00 00 
  401f2e:	66 c7 84 24 50 a0 00 	movw   $0x2,0xa050(%rsp)
  401f35:	00 02 00 
  401f38:	48 63 50 14          	movslq 0x14(%rax),%rdx
  401f3c:	48 8b 40 18          	mov    0x18(%rax),%rax
  401f40:	48 8d 79 04          	lea    0x4(%rcx),%rdi
  401f44:	48 8b 30             	mov    (%rax),%rsi
  401f47:	e8 f4 ec ff ff       	callq  400c40 <memmove@plt>
  401f4c:	66 41 c1 cd 08       	ror    $0x8,%r13w
  401f51:	66 44 89 ac 24 52 a0 	mov    %r13w,0xa052(%rsp)
  401f58:	00 00 
  401f5a:	ba 10 00 00 00       	mov    $0x10,%edx
  401f5f:	48 8d b4 24 50 a0 00 	lea    0xa050(%rsp),%rsi
  401f66:	00 
  401f67:	44 89 e7             	mov    %r12d,%edi
  401f6a:	e8 21 ed ff ff       	callq  400c90 <connect@plt>
  401f6f:	85 c0                	test   %eax,%eax
  401f71:	0f 88 64 01 00 00    	js     4020db <submitr+0x24b>
  401f77:	49 c7 c1 ff ff ff ff 	mov    $0xffffffffffffffff,%r9
  401f7e:	b8 00 00 00 00       	mov    $0x0,%eax
  401f83:	4c 89 c9             	mov    %r9,%rcx
  401f86:	48 89 df             	mov    %rbx,%rdi
  401f89:	f2 ae                	repnz scas %es:(%rdi),%al
  401f8b:	48 f7 d1             	not    %rcx
  401f8e:	48 89 ce             	mov    %rcx,%rsi
  401f91:	4c 89 c9             	mov    %r9,%rcx
  401f94:	48 8b 3c 24          	mov    (%rsp),%rdi
  401f98:	f2 ae                	repnz scas %es:(%rdi),%al
  401f9a:	49 89 c8             	mov    %rcx,%r8
  401f9d:	4c 89 c9             	mov    %r9,%rcx
  401fa0:	48 8b 7c 24 08       	mov    0x8(%rsp),%rdi
  401fa5:	f2 ae                	repnz scas %es:(%rdi),%al
  401fa7:	48 f7 d1             	not    %rcx
  401faa:	48 89 ca             	mov    %rcx,%rdx
  401fad:	4c 89 c9             	mov    %r9,%rcx
  401fb0:	48 8b 7c 24 10       	mov    0x10(%rsp),%rdi
  401fb5:	f2 ae                	repnz scas %es:(%rdi),%al
  401fb7:	4c 29 c2             	sub    %r8,%rdx
  401fba:	48 29 ca             	sub    %rcx,%rdx
  401fbd:	48 8d 44 76 fd       	lea    -0x3(%rsi,%rsi,2),%rax
  401fc2:	48 8d 44 02 7b       	lea    0x7b(%rdx,%rax,1),%rax
  401fc7:	48 3d 00 20 00 00    	cmp    $0x2000,%rax
  401fcd:	0f 87 65 01 00 00    	ja     402138 <submitr+0x2a8>
  401fd3:	48 8d 94 24 40 40 00 	lea    0x4040(%rsp),%rdx
  401fda:	00 
  401fdb:	b9 00 04 00 00       	mov    $0x400,%ecx
  401fe0:	b8 00 00 00 00       	mov    $0x0,%eax
  401fe5:	48 89 d7             	mov    %rdx,%rdi
  401fe8:	f3 48 ab             	rep stos %rax,%es:(%rdi)
  401feb:	48 c7 c1 ff ff ff ff 	mov    $0xffffffffffffffff,%rcx
  401ff2:	48 89 df             	mov    %rbx,%rdi
  401ff5:	f2 ae                	repnz scas %es:(%rdi),%al
  401ff7:	48 f7 d1             	not    %rcx
  401ffa:	48 83 e9 01          	sub    $0x1,%rcx
  401ffe:	85 c9                	test   %ecx,%ecx
  402000:	0f 84 45 05 00 00    	je     40254b <submitr+0x6bb>
  402006:	8d 41 ff             	lea    -0x1(%rcx),%eax
  402009:	4c 8d 74 03 01       	lea    0x1(%rbx,%rax,1),%r14
  40200e:	48 89 d5             	mov    %rdx,%rbp
  402011:	49 bd d9 ff 00 00 00 	mov    $0x2000000000ffd9,%r13
  402018:	00 20 00 
  40201b:	e9 a5 01 00 00       	jmpq   4021c5 <submitr+0x335>
  402020:	48 b8 45 72 72 6f 72 	mov    $0x43203a726f727245,%rax
  402027:	3a 20 43 
  40202a:	48 ba 6c 69 65 6e 74 	mov    $0x6e7520746e65696c,%rdx
  402031:	20 75 6e 
  402034:	49 89 07             	mov    %rax,(%r15)
  402037:	49 89 57 08          	mov    %rdx,0x8(%r15)
  40203b:	48 b8 61 62 6c 65 20 	mov    $0x206f7420656c6261,%rax
  402042:	74 6f 20 
  402045:	48 ba 63 72 65 61 74 	mov    $0x7320657461657263,%rdx
  40204c:	65 20 73 
  40204f:	49 89 47 10          	mov    %rax,0x10(%r15)
  402053:	49 89 57 18          	mov    %rdx,0x18(%r15)
  402057:	41 c7 47 20 6f 63 6b 	movl   $0x656b636f,0x20(%r15)
  40205e:	65 
  40205f:	66 41 c7 47 24 74 00 	movw   $0x74,0x24(%r15)
  402066:	b8 ff ff ff ff       	mov    $0xffffffff,%eax
  40206b:	e9 03 03 00 00       	jmpq   402373 <submitr+0x4e3>
  402070:	48 b8 45 72 72 6f 72 	mov    $0x44203a726f727245,%rax
  402077:	3a 20 44 
  40207a:	48 ba 4e 53 20 69 73 	mov    $0x6e7520736920534e,%rdx
  402081:	20 75 6e 
  402084:	49 89 07             	mov    %rax,(%r15)
  402087:	49 89 57 08          	mov    %rdx,0x8(%r15)
  40208b:	48 b8 61 62 6c 65 20 	mov    $0x206f7420656c6261,%rax
  402092:	74 6f 20 
  402095:	48 ba 72 65 73 6f 6c 	mov    $0x2065766c6f736572,%rdx
  40209c:	76 65 20 
  40209f:	49 89 47 10          	mov    %rax,0x10(%r15)
  4020a3:	49 89 57 18          	mov    %rdx,0x18(%r15)
  4020a7:	48 b8 73 65 72 76 65 	mov    $0x6120726576726573,%rax
  4020ae:	72 20 61 
  4020b1:	49 89 47 20          	mov    %rax,0x20(%r15)
  4020b5:	41 c7 47 28 64 64 72 	movl   $0x65726464,0x28(%r15)
  4020bc:	65 
  4020bd:	66 41 c7 47 2c 73 73 	movw   $0x7373,0x2c(%r15)
  4020c4:	41 c6 47 2e 00       	movb   $0x0,0x2e(%r15)
  4020c9:	44 89 e7             	mov    %r12d,%edi
  4020cc:	e8 cf ea ff ff       	callq  400ba0 <close@plt>
  4020d1:	b8 ff ff ff ff       	mov    $0xffffffff,%eax
  4020d6:	e9 98 02 00 00       	jmpq   402373 <submitr+0x4e3>
  4020db:	48 b8 45 72 72 6f 72 	mov    $0x55203a726f727245,%rax
  4020e2:	3a 20 55 
  4020e5:	48 ba 6e 61 62 6c 65 	mov    $0x6f7420656c62616e,%rdx
  4020ec:	20 74 6f 
  4020ef:	49 89 07             	mov    %rax,(%r15)
  4020f2:	49 89 57 08          	mov    %rdx,0x8(%r15)
  4020f6:	48 b8 20 63 6f 6e 6e 	mov    $0x7463656e6e6f6320,%rax
  4020fd:	65 63 74 
  402100:	48 ba 20 74 6f 20 74 	mov    $0x20656874206f7420,%rdx
  402107:	68 65 20 
  40210a:	49 89 47 10          	mov    %rax,0x10(%r15)
  40210e:	49 89 57 18          	mov    %rdx,0x18(%r15)
  402112:	41 c7 47 20 73 65 72 	movl   $0x76726573,0x20(%r15)
  402119:	76 
  40211a:	66 41 c7 47 24 65 72 	movw   $0x7265,0x24(%r15)
  402121:	41 c6 47 26 00       	movb   $0x0,0x26(%r15)
  402126:	44 89 e7             	mov    %r12d,%edi
  402129:	e8 72 ea ff ff       	callq  400ba0 <close@plt>
  40212e:	b8 ff ff ff ff       	mov    $0xffffffff,%eax
  402133:	e9 3b 02 00 00       	jmpq   402373 <submitr+0x4e3>
  402138:	48 b8 45 72 72 6f 72 	mov    $0x52203a726f727245,%rax
  40213f:	3a 20 52 
  402142:	48 ba 65 73 75 6c 74 	mov    $0x747320746c757365,%rdx
  402149:	20 73 74 
  40214c:	49 89 07             	mov    %rax,(%r15)
  40214f:	49 89 57 08          	mov    %rdx,0x8(%r15)
  402153:	48 b8 72 69 6e 67 20 	mov    $0x6f6f7420676e6972,%rax
  40215a:	74 6f 6f 
  40215d:	48 ba 20 6c 61 72 67 	mov    $0x202e656772616c20,%rdx
  402164:	65 2e 20 
  402167:	49 89 47 10          	mov    %rax,0x10(%r15)
  40216b:	49 89 57 18          	mov    %rdx,0x18(%r15)
  40216f:	48 b8 49 6e 63 72 65 	mov    $0x6573616572636e49,%rax
  402176:	61 73 65 
  402179:	48 ba 20 53 55 42 4d 	mov    $0x5254494d42555320,%rdx
  402180:	49 54 52 
  402183:	49 89 47 20          	mov    %rax,0x20(%r15)
  402187:	49 89 57 28          	mov    %rdx,0x28(%r15)
  40218b:	48 b8 5f 4d 41 58 42 	mov    $0x46554258414d5f,%rax
  402192:	55 46 00 
  402195:	49 89 47 30          	mov    %rax,0x30(%r15)
  402199:	44 89 e7             	mov    %r12d,%edi
  40219c:	e8 ff e9 ff ff       	callq  400ba0 <close@plt>
  4021a1:	b8 ff ff ff ff       	mov    $0xffffffff,%eax
  4021a6:	e9 c8 01 00 00       	jmpq   402373 <submitr+0x4e3>
  4021ab:	49 0f a3 c5          	bt     %rax,%r13
  4021af:	73 1e                	jae    4021cf <submitr+0x33f>
  4021b1:	88 55 00             	mov    %dl,0x0(%rbp)
  4021b4:	48 8d 6d 01          	lea    0x1(%rbp),%rbp
  4021b8:	48 83 c3 01          	add    $0x1,%rbx
  4021bc:	49 39 de             	cmp    %rbx,%r14
  4021bf:	0f 84 86 03 00 00    	je     40254b <submitr+0x6bb>
  4021c5:	0f b6 13             	movzbl (%rbx),%edx
  4021c8:	8d 42 d6             	lea    -0x2a(%rdx),%eax
  4021cb:	3c 35                	cmp    $0x35,%al
  4021cd:	76 dc                	jbe    4021ab <submitr+0x31b>
  4021cf:	89 d0                	mov    %edx,%eax
  4021d1:	83 e0 df             	and    $0xffffffffffffffdf,%eax
  4021d4:	83 e8 41             	sub    $0x41,%eax
  4021d7:	3c 19                	cmp    $0x19,%al
  4021d9:	76 d6                	jbe    4021b1 <submitr+0x321>
  4021db:	80 fa 20             	cmp    $0x20,%dl
  4021de:	74 45                	je     402225 <submitr+0x395>
  4021e0:	8d 42 e0             	lea    -0x20(%rdx),%eax
  4021e3:	3c 5f                	cmp    $0x5f,%al
  4021e5:	76 09                	jbe    4021f0 <submitr+0x360>
  4021e7:	80 fa 09             	cmp    $0x9,%dl
  4021ea:	0f 85 ce 02 00 00    	jne    4024be <submitr+0x62e>
  4021f0:	0f b6 d2             	movzbl %dl,%edx
  4021f3:	be 38 34 40 00       	mov    $0x403438,%esi
  4021f8:	48 8d 7c 24 28       	lea    0x28(%rsp),%rdi
  4021fd:	b8 00 00 00 00       	mov    $0x0,%eax
  402202:	e8 69 ea ff ff       	callq  400c70 <sprintf@plt>
  402207:	0f b6 44 24 28       	movzbl 0x28(%rsp),%eax
  40220c:	88 45 00             	mov    %al,0x0(%rbp)
  40220f:	0f b6 44 24 29       	movzbl 0x29(%rsp),%eax
  402214:	88 45 01             	mov    %al,0x1(%rbp)
  402217:	0f b6 44 24 2a       	movzbl 0x2a(%rsp),%eax
  40221c:	88 45 02             	mov    %al,0x2(%rbp)
  40221f:	48 8d 6d 03          	lea    0x3(%rbp),%rbp
  402223:	eb 93                	jmp    4021b8 <submitr+0x328>
  402225:	c6 45 00 2b          	movb   $0x2b,0x0(%rbp)
  402229:	48 8d 6d 01          	lea    0x1(%rbp),%rbp
  40222d:	eb 89                	jmp    4021b8 <submitr+0x328>
  40222f:	48 01 c5             	add    %rax,%rbp
  402232:	48 29 c3             	sub    %rax,%rbx
  402235:	0f 84 84 03 00 00    	je     4025bf <submitr+0x72f>
  40223b:	48 89 da             	mov    %rbx,%rdx
  40223e:	48 89 ee             	mov    %rbp,%rsi
  402241:	44 89 e7             	mov    %r12d,%edi
  402244:	e8 27 e9 ff ff       	callq  400b70 <write@plt>
  402249:	48 85 c0             	test   %rax,%rax
  40224c:	7f e1                	jg     40222f <submitr+0x39f>
  40224e:	e8 ed e8 ff ff       	callq  400b40 <__errno_location@plt>
  402253:	83 38 04             	cmpl   $0x4,(%rax)
  402256:	0f 85 03 02 00 00    	jne    40245f <submitr+0x5cf>
  40225c:	4c 89 e8             	mov    %r13,%rax
  40225f:	eb ce                	jmp    40222f <submitr+0x39f>
  402261:	48 b8 45 72 72 6f 72 	mov    $0x43203a726f727245,%rax
  402268:	3a 20 43 
  40226b:	48 ba 6c 69 65 6e 74 	mov    $0x6e7520746e65696c,%rdx
  402272:	20 75 6e 
  402275:	49 89 07             	mov    %rax,(%r15)
  402278:	49 89 57 08          	mov    %rdx,0x8(%r15)
  40227c:	48 b8 61 62 6c 65 20 	mov    $0x206f7420656c6261,%rax
  402283:	74 6f 20 
  402286:	48 ba 72 65 61 64 20 	mov    $0x7269662064616572,%rdx
  40228d:	66 69 72 
  402290:	49 89 47 10          	mov    %rax,0x10(%r15)
  402294:	49 89 57 18          	mov    %rdx,0x18(%r15)
  402298:	48 b8 73 74 20 68 65 	mov    $0x6564616568207473,%rax
  40229f:	61 64 65 
  4022a2:	48 ba 72 20 66 72 6f 	mov    $0x73206d6f72662072,%rdx
  4022a9:	6d 20 73 
  4022ac:	49 89 47 20          	mov    %rax,0x20(%r15)
  4022b0:	49 89 57 28          	mov    %rdx,0x28(%r15)
  4022b4:	41 c7 47 30 65 72 76 	movl   $0x65767265,0x30(%r15)
  4022bb:	65 
  4022bc:	66 41 c7 47 34 72 00 	movw   $0x72,0x34(%r15)
  4022c3:	44 89 e7             	mov    %r12d,%edi
  4022c6:	e8 d5 e8 ff ff       	callq  400ba0 <close@plt>
  4022cb:	b8 ff ff ff ff       	mov    $0xffffffff,%eax
  4022d0:	e9 9e 00 00 00       	jmpq   402373 <submitr+0x4e3>
  4022d5:	ba 00 20 00 00       	mov    $0x2000,%edx
  4022da:	48 8d b4 24 40 60 00 	lea    0x6040(%rsp),%rsi
  4022e1:	00 
  4022e2:	48 8d bc 24 40 80 00 	lea    0x8040(%rsp),%rdi
  4022e9:	00 
  4022ea:	e8 de fa ff ff       	callq  401dcd <rio_readlineb>
  4022ef:	48 85 c0             	test   %rax,%rax
  4022f2:	0f 8e 8d 00 00 00    	jle    402385 <submitr+0x4f5>
  4022f8:	80 bc 24 40 60 00 00 	cmpb   $0xd,0x6040(%rsp)
  4022ff:	0d 
  402300:	75 d3                	jne    4022d5 <submitr+0x445>
  402302:	80 bc 24 41 60 00 00 	cmpb   $0xa,0x6041(%rsp)
  402309:	0a 
  40230a:	75 c9                	jne    4022d5 <submitr+0x445>
  40230c:	80 bc 24 42 60 00 00 	cmpb   $0x0,0x6042(%rsp)
  402313:	00 
  402314:	75 bf                	jne    4022d5 <submitr+0x445>
  402316:	ba 00 20 00 00       	mov    $0x2000,%edx
  40231b:	48 8d b4 24 40 60 00 	lea    0x6040(%rsp),%rsi
  402322:	00 
  402323:	48 8d bc 24 40 80 00 	lea    0x8040(%rsp),%rdi
  40232a:	00 
  40232b:	e8 9d fa ff ff       	callq  401dcd <rio_readlineb>
  402330:	48 85 c0             	test   %rax,%rax
  402333:	0f 8e b3 00 00 00    	jle    4023ec <submitr+0x55c>
  402339:	48 8d b4 24 40 60 00 	lea    0x6040(%rsp),%rsi
  402340:	00 
  402341:	4c 89 ff             	mov    %r15,%rdi
  402344:	e8 07 e8 ff ff       	callq  400b50 <strcpy@plt>
  402349:	44 89 e7             	mov    %r12d,%edi
  40234c:	e8 4f e8 ff ff       	callq  400ba0 <close@plt>
  402351:	41 0f b6 07          	movzbl (%r15),%eax
  402355:	83 e8 4f             	sub    $0x4f,%eax
  402358:	75 0f                	jne    402369 <submitr+0x4d9>
  40235a:	41 0f b6 47 01       	movzbl 0x1(%r15),%eax
  40235f:	83 e8 4b             	sub    $0x4b,%eax
  402362:	75 05                	jne    402369 <submitr+0x4d9>
  402364:	41 0f b6 47 02       	movzbl 0x2(%r15),%eax
  402369:	85 c0                	test   %eax,%eax
  40236b:	0f 95 c0             	setne  %al
  40236e:	0f b6 c0             	movzbl %al,%eax
  402371:	f7 d8                	neg    %eax
  402373:	48 81 c4 68 a0 00 00 	add    $0xa068,%rsp
  40237a:	5b                   	pop    %rbx
  40237b:	5d                   	pop    %rbp
  40237c:	41 5c                	pop    %r12
  40237e:	41 5d                	pop    %r13
  402380:	41 5e                	pop    %r14
  402382:	41 5f                	pop    %r15
  402384:	c3                   	retq   
  402385:	48 b8 45 72 72 6f 72 	mov    $0x43203a726f727245,%rax
  40238c:	3a 20 43 
  40238f:	48 ba 6c 69 65 6e 74 	mov    $0x6e7520746e65696c,%rdx
  402396:	20 75 6e 
  402399:	49 89 07             	mov    %rax,(%r15)
  40239c:	49 89 57 08          	mov    %rdx,0x8(%r15)
  4023a0:	48 b8 61 62 6c 65 20 	mov    $0x206f7420656c6261,%rax
  4023a7:	74 6f 20 
  4023aa:	48 ba 72 65 61 64 20 	mov    $0x6165682064616572,%rdx
  4023b1:	68 65 61 
  4023b4:	49 89 47 10          	mov    %rax,0x10(%r15)
  4023b8:	49 89 57 18          	mov    %rdx,0x18(%r15)
  4023bc:	48 b8 64 65 72 73 20 	mov    $0x6f72662073726564,%rax
  4023c3:	66 72 6f 
  4023c6:	48 ba 6d 20 73 65 72 	mov    $0x726576726573206d,%rdx
  4023cd:	76 65 72 
  4023d0:	49 89 47 20          	mov    %rax,0x20(%r15)
  4023d4:	49 89 57 28          	mov    %rdx,0x28(%r15)
  4023d8:	41 c6 47 30 00       	movb   $0x0,0x30(%r15)
  4023dd:	44 89 e7             	mov    %r12d,%edi
  4023e0:	e8 bb e7 ff ff       	callq  400ba0 <close@plt>
  4023e5:	b8 ff ff ff ff       	mov    $0xffffffff,%eax
  4023ea:	eb 87                	jmp    402373 <submitr+0x4e3>
  4023ec:	48 b8 45 72 72 6f 72 	mov    $0x43203a726f727245,%rax
  4023f3:	3a 20 43 
  4023f6:	48 ba 6c 69 65 6e 74 	mov    $0x6e7520746e65696c,%rdx
  4023fd:	20 75 6e 
  402400:	49 89 07             	mov    %rax,(%r15)
  402403:	49 89 57 08          	mov    %rdx,0x8(%r15)
  402407:	48 b8 61 62 6c 65 20 	mov    $0x206f7420656c6261,%rax
  40240e:	74 6f 20 
  402411:	48 ba 72 65 61 64 20 	mov    $0x6174732064616572,%rdx
  402418:	73 74 61 
  40241b:	49 89 47 10          	mov    %rax,0x10(%r15)
  40241f:	49 89 57 18          	mov    %rdx,0x18(%r15)
  402423:	48 b8 74 75 73 20 6d 	mov    $0x7373656d20737574,%rax
  40242a:	65 73 73 
  40242d:	48 ba 61 67 65 20 66 	mov    $0x6d6f726620656761,%rdx
  402434:	72 6f 6d 
  402437:	49 89 47 20          	mov    %rax,0x20(%r15)
  40243b:	49 89 57 28          	mov    %rdx,0x28(%r15)
  40243f:	48 b8 20 73 65 72 76 	mov    $0x72657672657320,%rax
  402446:	65 72 00 
  402449:	49 89 47 30          	mov    %rax,0x30(%r15)
  40244d:	44 89 e7             	mov    %r12d,%edi
  402450:	e8 4b e7 ff ff       	callq  400ba0 <close@plt>
  402455:	b8 ff ff ff ff       	mov    $0xffffffff,%eax
  40245a:	e9 14 ff ff ff       	jmpq   402373 <submitr+0x4e3>
  40245f:	48 b8 45 72 72 6f 72 	mov    $0x43203a726f727245,%rax
  402466:	3a 20 43 
  402469:	48 ba 6c 69 65 6e 74 	mov    $0x6e7520746e65696c,%rdx
  402470:	20 75 6e 
  402473:	49 89 07             	mov    %rax,(%r15)
  402476:	49 89 57 08          	mov    %rdx,0x8(%r15)
  40247a:	48 b8 61 62 6c 65 20 	mov    $0x206f7420656c6261,%rax
  402481:	74 6f 20 
  402484:	48 ba 77 72 69 74 65 	mov    $0x6f74206574697277,%rdx
  40248b:	20 74 6f 
  40248e:	49 89 47 10          	mov    %rax,0x10(%r15)
  402492:	49 89 57 18          	mov    %rdx,0x18(%r15)
  402496:	48 b8 20 74 68 65 20 	mov    $0x7265732065687420,%rax
  40249d:	73 65 72 
  4024a0:	49 89 47 20          	mov    %rax,0x20(%r15)
  4024a4:	41 c7 47 28 76 65 72 	movl   $0x726576,0x28(%r15)
  4024ab:	00 
  4024ac:	44 89 e7             	mov    %r12d,%edi
  4024af:	e8 ec e6 ff ff       	callq  400ba0 <close@plt>
  4024b4:	b8 ff ff ff ff       	mov    $0xffffffff,%eax
  4024b9:	e9 b5 fe ff ff       	jmpq   402373 <submitr+0x4e3>
  4024be:	48 b8 45 72 72 6f 72 	mov    $0x52203a726f727245,%rax
  4024c5:	3a 20 52 
  4024c8:	48 ba 65 73 75 6c 74 	mov    $0x747320746c757365,%rdx
  4024cf:	20 73 74 
  4024d2:	49 89 07             	mov    %rax,(%r15)
  4024d5:	49 89 57 08          	mov    %rdx,0x8(%r15)
  4024d9:	48 b8 72 69 6e 67 20 	mov    $0x6e6f6320676e6972,%rax
  4024e0:	63 6f 6e 
  4024e3:	48 ba 74 61 69 6e 73 	mov    $0x6e6120736e696174,%rdx
  4024ea:	20 61 6e 
  4024ed:	49 89 47 10          	mov    %rax,0x10(%r15)
  4024f1:	49 89 57 18          	mov    %rdx,0x18(%r15)
  4024f5:	48 b8 20 69 6c 6c 65 	mov    $0x6c6167656c6c6920,%rax
  4024fc:	67 61 6c 
  4024ff:	48 ba 20 6f 72 20 75 	mov    $0x72706e7520726f20,%rdx
  402506:	6e 70 72 
  402509:	49 89 47 20          	mov    %rax,0x20(%r15)
  40250d:	49 89 57 28          	mov    %rdx,0x28(%r15)
  402511:	48 b8 69 6e 74 61 62 	mov    $0x20656c6261746e69,%rax
  402518:	6c 65 20 
  40251b:	48 ba 63 68 61 72 61 	mov    $0x6574636172616863,%rdx
  402522:	63 74 65 
  402525:	49 89 47 30          	mov    %rax,0x30(%r15)
  402529:	49 89 57 38          	mov    %rdx,0x38(%r15)
  40252d:	66 41 c7 47 40 72 2e 	movw   $0x2e72,0x40(%r15)
  402534:	41 c6 47 42 00       	movb   $0x0,0x42(%r15)
  402539:	44 89 e7             	mov    %r12d,%edi
  40253c:	e8 5f e6 ff ff       	callq  400ba0 <close@plt>
  402541:	b8 ff ff ff ff       	mov    $0xffffffff,%eax
  402546:	e9 28 fe ff ff       	jmpq   402373 <submitr+0x4e3>
  40254b:	48 8d 9c 24 40 60 00 	lea    0x6040(%rsp),%rbx
  402552:	00 
  402553:	48 83 ec 08          	sub    $0x8,%rsp
  402557:	48 8d 84 24 48 40 00 	lea    0x4048(%rsp),%rax
  40255e:	00 
  40255f:	50                   	push   %rax
  402560:	4c 8b 4c 24 20       	mov    0x20(%rsp),%r9
  402565:	4c 8b 44 24 28       	mov    0x28(%rsp),%r8
  40256a:	48 8b 4c 24 18       	mov    0x18(%rsp),%rcx
  40256f:	48 8b 54 24 10       	mov    0x10(%rsp),%rdx
  402574:	be b8 33 40 00       	mov    $0x4033b8,%esi
  402579:	48 89 df             	mov    %rbx,%rdi
  40257c:	b8 00 00 00 00       	mov    $0x0,%eax
  402581:	e8 ea e6 ff ff       	callq  400c70 <sprintf@plt>
  402586:	48 c7 c1 ff ff ff ff 	mov    $0xffffffffffffffff,%rcx
  40258d:	b8 00 00 00 00       	mov    $0x0,%eax
  402592:	48 89 df             	mov    %rbx,%rdi
  402595:	f2 ae                	repnz scas %es:(%rdi),%al
  402597:	48 89 ce             	mov    %rcx,%rsi
  40259a:	48 f7 d6             	not    %rsi
  40259d:	48 89 f1             	mov    %rsi,%rcx
  4025a0:	48 83 c4 10          	add    $0x10,%rsp
  4025a4:	48 8d ac 24 40 60 00 	lea    0x6040(%rsp),%rbp
  4025ab:	00 
  4025ac:	41 bd 00 00 00 00    	mov    $0x0,%r13d
  4025b2:	48 83 e9 01          	sub    $0x1,%rcx
  4025b6:	48 89 cb             	mov    %rcx,%rbx
  4025b9:	0f 85 7c fc ff ff    	jne    40223b <submitr+0x3ab>
  4025bf:	44 89 a4 24 40 80 00 	mov    %r12d,0x8040(%rsp)
  4025c6:	00 
  4025c7:	c7 84 24 44 80 00 00 	movl   $0x0,0x8044(%rsp)
  4025ce:	00 00 00 00 
  4025d2:	48 8d 84 24 50 80 00 	lea    0x8050(%rsp),%rax
  4025d9:	00 
  4025da:	48 89 84 24 48 80 00 	mov    %rax,0x8048(%rsp)
  4025e1:	00 
  4025e2:	ba 00 20 00 00       	mov    $0x2000,%edx
  4025e7:	48 8d b4 24 40 60 00 	lea    0x6040(%rsp),%rsi
  4025ee:	00 
  4025ef:	48 8d bc 24 40 80 00 	lea    0x8040(%rsp),%rdi
  4025f6:	00 
  4025f7:	e8 d1 f7 ff ff       	callq  401dcd <rio_readlineb>
  4025fc:	48 85 c0             	test   %rax,%rax
  4025ff:	0f 8e 5c fc ff ff    	jle    402261 <submitr+0x3d1>
  402605:	4c 8d 44 24 30       	lea    0x30(%rsp),%r8
  40260a:	48 8d 8c 24 3c 20 00 	lea    0x203c(%rsp),%rcx
  402611:	00 
  402612:	48 8d 94 24 40 20 00 	lea    0x2040(%rsp),%rdx
  402619:	00 
  40261a:	be 3f 34 40 00       	mov    $0x40343f,%esi
  40261f:	48 8d bc 24 40 60 00 	lea    0x6040(%rsp),%rdi
  402626:	00 
  402627:	b8 00 00 00 00       	mov    $0x0,%eax
  40262c:	e8 ff e5 ff ff       	callq  400c30 <__isoc99_sscanf@plt>
  402631:	8b 94 24 3c 20 00 00 	mov    0x203c(%rsp),%edx
  402638:	81 fa c8 00 00 00    	cmp    $0xc8,%edx
  40263e:	0f 84 b4 fc ff ff    	je     4022f8 <submitr+0x468>
  402644:	48 8d 4c 24 30       	lea    0x30(%rsp),%rcx
  402649:	be 88 33 40 00       	mov    $0x403388,%esi
  40264e:	4c 89 ff             	mov    %r15,%rdi
  402651:	b8 00 00 00 00       	mov    $0x0,%eax
  402656:	e8 15 e6 ff ff       	callq  400c70 <sprintf@plt>
  40265b:	44 89 e7             	mov    %r12d,%edi
  40265e:	e8 3d e5 ff ff       	callq  400ba0 <close@plt>
  402663:	b8 ff ff ff ff       	mov    $0xffffffff,%eax
  402668:	e9 06 fd ff ff       	jmpq   402373 <submitr+0x4e3>

000000000040266d <init_timeout>:
  40266d:	85 ff                	test   %edi,%edi
  40266f:	74 23                	je     402694 <init_timeout+0x27>
  402671:	53                   	push   %rbx
  402672:	89 fb                	mov    %edi,%ebx
  402674:	be a4 1d 40 00       	mov    $0x401da4,%esi
  402679:	bf 0e 00 00 00       	mov    $0xe,%edi
  40267e:	e8 5d e5 ff ff       	callq  400be0 <signal@plt>
  402683:	85 db                	test   %ebx,%ebx
  402685:	bf 00 00 00 00       	mov    $0x0,%edi
  40268a:	0f 49 fb             	cmovns %ebx,%edi
  40268d:	e8 fe e4 ff ff       	callq  400b90 <alarm@plt>
  402692:	5b                   	pop    %rbx
  402693:	c3                   	retq   
  402694:	c3                   	retq   

0000000000402695 <init_driver>:
  402695:	55                   	push   %rbp
  402696:	53                   	push   %rbx
  402697:	48 83 ec 18          	sub    $0x18,%rsp
  40269b:	48 89 fd             	mov    %rdi,%rbp
  40269e:	be 01 00 00 00       	mov    $0x1,%esi
  4026a3:	bf 0d 00 00 00       	mov    $0xd,%edi
  4026a8:	e8 33 e5 ff ff       	callq  400be0 <signal@plt>
  4026ad:	be 01 00 00 00       	mov    $0x1,%esi
  4026b2:	bf 1d 00 00 00       	mov    $0x1d,%edi
  4026b7:	e8 24 e5 ff ff       	callq  400be0 <signal@plt>
  4026bc:	be 01 00 00 00       	mov    $0x1,%esi
  4026c1:	bf 1d 00 00 00       	mov    $0x1d,%edi
  4026c6:	e8 15 e5 ff ff       	callq  400be0 <signal@plt>
  4026cb:	ba 00 00 00 00       	mov    $0x0,%edx
  4026d0:	be 01 00 00 00       	mov    $0x1,%esi
  4026d5:	bf 02 00 00 00       	mov    $0x2,%edi
  4026da:	e8 e1 e5 ff ff       	callq  400cc0 <socket@plt>
  4026df:	85 c0                	test   %eax,%eax
  4026e1:	0f 88 83 00 00 00    	js     40276a <init_driver+0xd5>
  4026e7:	89 c3                	mov    %eax,%ebx
  4026e9:	bf ae 32 40 00       	mov    $0x4032ae,%edi
  4026ee:	e8 fd e4 ff ff       	callq  400bf0 <gethostbyname@plt>
  4026f3:	48 85 c0             	test   %rax,%rax
  4026f6:	0f 84 ba 00 00 00    	je     4027b6 <init_driver+0x121>
  4026fc:	48 c7 44 24 02 00 00 	movq   $0x0,0x2(%rsp)
  402703:	00 00 
  402705:	c7 44 24 0a 00 00 00 	movl   $0x0,0xa(%rsp)
  40270c:	00 
  40270d:	66 c7 44 24 0e 00 00 	movw   $0x0,0xe(%rsp)
  402714:	66 c7 04 24 02 00    	movw   $0x2,(%rsp)
  40271a:	48 63 50 14          	movslq 0x14(%rax),%rdx
  40271e:	48 8b 40 18          	mov    0x18(%rax),%rax
  402722:	48 8d 7c 24 04       	lea    0x4(%rsp),%rdi
  402727:	48 8b 30             	mov    (%rax),%rsi
  40272a:	e8 11 e5 ff ff       	callq  400c40 <memmove@plt>
  40272f:	66 c7 44 24 02 3b 6e 	movw   $0x6e3b,0x2(%rsp)
  402736:	ba 10 00 00 00       	mov    $0x10,%edx
  40273b:	48 89 e6             	mov    %rsp,%rsi
  40273e:	89 df                	mov    %ebx,%edi
  402740:	e8 4b e5 ff ff       	callq  400c90 <connect@plt>
  402745:	85 c0                	test   %eax,%eax
  402747:	0f 88 d1 00 00 00    	js     40281e <init_driver+0x189>
  40274d:	89 df                	mov    %ebx,%edi
  40274f:	e8 4c e4 ff ff       	callq  400ba0 <close@plt>
  402754:	66 c7 45 00 4f 4b    	movw   $0x4b4f,0x0(%rbp)
  40275a:	c6 45 02 00          	movb   $0x0,0x2(%rbp)
  40275e:	b8 00 00 00 00       	mov    $0x0,%eax
  402763:	48 83 c4 18          	add    $0x18,%rsp
  402767:	5b                   	pop    %rbx
  402768:	5d                   	pop    %rbp
  402769:	c3                   	retq   
  40276a:	48 b8 45 72 72 6f 72 	mov    $0x43203a726f727245,%rax
  402771:	3a 20 43 
  402774:	48 ba 6c 69 65 6e 74 	mov    $0x6e7520746e65696c,%rdx
  40277b:	20 75 6e 
  40277e:	48 89 45 00          	mov    %rax,0x0(%rbp)
  402782:	48 89 55 08          	mov    %rdx,0x8(%rbp)
  402786:	48 b8 61 62 6c 65 20 	mov    $0x206f7420656c6261,%rax
  40278d:	74 6f 20 
  402790:	48 ba 63 72 65 61 74 	mov    $0x7320657461657263,%rdx
  402797:	65 20 73 
  40279a:	48 89 45 10          	mov    %rax,0x10(%rbp)
  40279e:	48 89 55 18          	mov    %rdx,0x18(%rbp)
  4027a2:	c7 45 20 6f 63 6b 65 	movl   $0x656b636f,0x20(%rbp)
  4027a9:	66 c7 45 24 74 00    	movw   $0x74,0x24(%rbp)
  4027af:	b8 ff ff ff ff       	mov    $0xffffffff,%eax
  4027b4:	eb ad                	jmp    402763 <init_driver+0xce>
  4027b6:	48 b8 45 72 72 6f 72 	mov    $0x44203a726f727245,%rax
  4027bd:	3a 20 44 
  4027c0:	48 ba 4e 53 20 69 73 	mov    $0x6e7520736920534e,%rdx
  4027c7:	20 75 6e 
  4027ca:	48 89 45 00          	mov    %rax,0x0(%rbp)
  4027ce:	48 89 55 08          	mov    %rdx,0x8(%rbp)
  4027d2:	48 b8 61 62 6c 65 20 	mov    $0x206f7420656c6261,%rax
  4027d9:	74 6f 20 
  4027dc:	48 ba 72 65 73 6f 6c 	mov    $0x2065766c6f736572,%rdx
  4027e3:	76 65 20 
  4027e6:	48 89 45 10          	mov    %rax,0x10(%rbp)
  4027ea:	48 89 55 18          	mov    %rdx,0x18(%rbp)
  4027ee:	48 b8 73 65 72 76 65 	mov    $0x6120726576726573,%rax
  4027f5:	72 20 61 
  4027f8:	48 89 45 20          	mov    %rax,0x20(%rbp)
  4027fc:	c7 45 28 64 64 72 65 	movl   $0x65726464,0x28(%rbp)
  402803:	66 c7 45 2c 73 73    	movw   $0x7373,0x2c(%rbp)
  402809:	c6 45 2e 00          	movb   $0x0,0x2e(%rbp)
  40280d:	89 df                	mov    %ebx,%edi
  40280f:	e8 8c e3 ff ff       	callq  400ba0 <close@plt>
  402814:	b8 ff ff ff ff       	mov    $0xffffffff,%eax
  402819:	e9 45 ff ff ff       	jmpq   402763 <init_driver+0xce>
  40281e:	ba ae 32 40 00       	mov    $0x4032ae,%edx
  402823:	be 10 34 40 00       	mov    $0x403410,%esi
  402828:	48 89 ef             	mov    %rbp,%rdi
  40282b:	b8 00 00 00 00       	mov    $0x0,%eax
  402830:	e8 3b e4 ff ff       	callq  400c70 <sprintf@plt>
  402835:	89 df                	mov    %ebx,%edi
  402837:	e8 64 e3 ff ff       	callq  400ba0 <close@plt>
  40283c:	b8 ff ff ff ff       	mov    $0xffffffff,%eax
  402841:	e9 1d ff ff ff       	jmpq   402763 <init_driver+0xce>

0000000000402846 <driver_post>:
  402846:	53                   	push   %rbx
  402847:	4c 89 c3             	mov    %r8,%rbx
  40284a:	85 c9                	test   %ecx,%ecx
  40284c:	75 17                	jne    402865 <driver_post+0x1f>
  40284e:	48 85 ff             	test   %rdi,%rdi
  402851:	74 05                	je     402858 <driver_post+0x12>
  402853:	80 3f 00             	cmpb   $0x0,(%rdi)
  402856:	75 2f                	jne    402887 <driver_post+0x41>
  402858:	66 c7 03 4f 4b       	movw   $0x4b4f,(%rbx)
  40285d:	c6 43 02 00          	movb   $0x0,0x2(%rbx)
  402861:	89 c8                	mov    %ecx,%eax
  402863:	5b                   	pop    %rbx
  402864:	c3                   	retq   
  402865:	48 89 d6             	mov    %rdx,%rsi
  402868:	bf 50 34 40 00       	mov    $0x403450,%edi
  40286d:	b8 00 00 00 00       	mov    $0x0,%eax
  402872:	e8 09 e3 ff ff       	callq  400b80 <printf@plt>
  402877:	66 c7 03 4f 4b       	movw   $0x4b4f,(%rbx)
  40287c:	c6 43 02 00          	movb   $0x0,0x2(%rbx)
  402880:	b8 00 00 00 00       	mov    $0x0,%eax
  402885:	eb dc                	jmp    402863 <driver_post+0x1d>
  402887:	41 50                	push   %r8
  402889:	52                   	push   %rdx
  40288a:	41 b9 67 34 40 00    	mov    $0x403467,%r9d
  402890:	49 89 f0             	mov    %rsi,%r8
  402893:	48 89 f9             	mov    %rdi,%rcx
  402896:	ba 6b 34 40 00       	mov    $0x40346b,%edx
  40289b:	be 6e 3b 00 00       	mov    $0x3b6e,%esi
  4028a0:	bf ae 32 40 00       	mov    $0x4032ae,%edi
  4028a5:	e8 e6 f5 ff ff       	callq  401e90 <submitr>
  4028aa:	48 83 c4 10          	add    $0x10,%rsp
  4028ae:	eb b3                	jmp    402863 <driver_post+0x1d>

00000000004028b0 <__libc_csu_init>:
  4028b0:	41 57                	push   %r15
  4028b2:	41 89 ff             	mov    %edi,%r15d
  4028b5:	41 56                	push   %r14
  4028b7:	49 89 f6             	mov    %rsi,%r14
  4028ba:	41 55                	push   %r13
  4028bc:	49 89 d5             	mov    %rdx,%r13
  4028bf:	41 54                	push   %r12
  4028c1:	4c 8d 25 50 15 20 00 	lea    0x201550(%rip),%r12        # 603e18 <__frame_dummy_init_array_entry>
  4028c8:	55                   	push   %rbp
  4028c9:	48 8d 2d 50 15 20 00 	lea    0x201550(%rip),%rbp        # 603e20 <__init_array_end>
  4028d0:	53                   	push   %rbx
  4028d1:	4c 29 e5             	sub    %r12,%rbp
  4028d4:	31 db                	xor    %ebx,%ebx
  4028d6:	48 c1 fd 03          	sar    $0x3,%rbp
  4028da:	48 83 ec 08          	sub    $0x8,%rsp
  4028de:	e8 05 e2 ff ff       	callq  400ae8 <_init>
  4028e3:	48 85 ed             	test   %rbp,%rbp
  4028e6:	74 1e                	je     402906 <__libc_csu_init+0x56>
  4028e8:	0f 1f 84 00 00 00 00 	nopl   0x0(%rax,%rax,1)
  4028ef:	00 
  4028f0:	4c 89 ea             	mov    %r13,%rdx
  4028f3:	4c 89 f6             	mov    %r14,%rsi
  4028f6:	44 89 ff             	mov    %r15d,%edi
  4028f9:	41 ff 14 dc          	callq  *(%r12,%rbx,8)
  4028fd:	48 83 c3 01          	add    $0x1,%rbx
  402901:	48 39 eb             	cmp    %rbp,%rbx
  402904:	75 ea                	jne    4028f0 <__libc_csu_init+0x40>
  402906:	48 83 c4 08          	add    $0x8,%rsp
  40290a:	5b                   	pop    %rbx
  40290b:	5d                   	pop    %rbp
  40290c:	41 5c                	pop    %r12
  40290e:	41 5d                	pop    %r13
  402910:	41 5e                	pop    %r14
  402912:	41 5f                	pop    %r15
  402914:	c3                   	retq   
  402915:	90                   	nop
  402916:	66 2e 0f 1f 84 00 00 	nopw   %cs:0x0(%rax,%rax,1)
  40291d:	00 00 00 

0000000000402920 <__libc_csu_fini>:
  402920:	f3 c3                	repz retq 

Disassembly of section .fini:

0000000000402924 <_fini>:
  402924:	48 83 ec 08          	sub    $0x8,%rsp
  402928:	48 83 c4 08          	add    $0x8,%rsp
  40292c:	c3                   	retq   
