
rtarget:     file format elf64-x86-64


Disassembly of section .init:

0000000000400bb0 <_init>:
  400bb0:	48 83 ec 08          	sub    $0x8,%rsp
  400bb4:	48 8b 05 3d 44 20 00 	mov    0x20443d(%rip),%rax        # 604ff8 <__gmon_start__>
  400bbb:	48 85 c0             	test   %rax,%rax
  400bbe:	74 05                	je     400bc5 <_init+0x15>
  400bc0:	e8 2b 02 00 00       	callq  400df0 <.plt.got>
  400bc5:	48 83 c4 08          	add    $0x8,%rsp
  400bc9:	c3                   	retq   

Disassembly of section .plt:

0000000000400bd0 <.plt>:
  400bd0:	ff 35 32 44 20 00    	pushq  0x204432(%rip)        # 605008 <_GLOBAL_OFFSET_TABLE_+0x8>
  400bd6:	ff 25 34 44 20 00    	jmpq   *0x204434(%rip)        # 605010 <_GLOBAL_OFFSET_TABLE_+0x10>
  400bdc:	0f 1f 40 00          	nopl   0x0(%rax)

0000000000400be0 <strcasecmp@plt>:
  400be0:	ff 25 32 44 20 00    	jmpq   *0x204432(%rip)        # 605018 <strcasecmp@GLIBC_2.2.5>
  400be6:	68 00 00 00 00       	pushq  $0x0
  400beb:	e9 e0 ff ff ff       	jmpq   400bd0 <.plt>

0000000000400bf0 <__errno_location@plt>:
  400bf0:	ff 25 2a 44 20 00    	jmpq   *0x20442a(%rip)        # 605020 <__errno_location@GLIBC_2.2.5>
  400bf6:	68 01 00 00 00       	pushq  $0x1
  400bfb:	e9 d0 ff ff ff       	jmpq   400bd0 <.plt>

0000000000400c00 <srandom@plt>:
  400c00:	ff 25 22 44 20 00    	jmpq   *0x204422(%rip)        # 605028 <srandom@GLIBC_2.2.5>
  400c06:	68 02 00 00 00       	pushq  $0x2
  400c0b:	e9 c0 ff ff ff       	jmpq   400bd0 <.plt>

0000000000400c10 <strncmp@plt>:
  400c10:	ff 25 1a 44 20 00    	jmpq   *0x20441a(%rip)        # 605030 <strncmp@GLIBC_2.2.5>
  400c16:	68 03 00 00 00       	pushq  $0x3
  400c1b:	e9 b0 ff ff ff       	jmpq   400bd0 <.plt>

0000000000400c20 <strcpy@plt>:
  400c20:	ff 25 12 44 20 00    	jmpq   *0x204412(%rip)        # 605038 <strcpy@GLIBC_2.2.5>
  400c26:	68 04 00 00 00       	pushq  $0x4
  400c2b:	e9 a0 ff ff ff       	jmpq   400bd0 <.plt>

0000000000400c30 <puts@plt>:
  400c30:	ff 25 0a 44 20 00    	jmpq   *0x20440a(%rip)        # 605040 <puts@GLIBC_2.2.5>
  400c36:	68 05 00 00 00       	pushq  $0x5
  400c3b:	e9 90 ff ff ff       	jmpq   400bd0 <.plt>

0000000000400c40 <write@plt>:
  400c40:	ff 25 02 44 20 00    	jmpq   *0x204402(%rip)        # 605048 <write@GLIBC_2.2.5>
  400c46:	68 06 00 00 00       	pushq  $0x6
  400c4b:	e9 80 ff ff ff       	jmpq   400bd0 <.plt>

0000000000400c50 <mmap@plt>:
  400c50:	ff 25 fa 43 20 00    	jmpq   *0x2043fa(%rip)        # 605050 <mmap@GLIBC_2.2.5>
  400c56:	68 07 00 00 00       	pushq  $0x7
  400c5b:	e9 70 ff ff ff       	jmpq   400bd0 <.plt>

0000000000400c60 <printf@plt>:
  400c60:	ff 25 f2 43 20 00    	jmpq   *0x2043f2(%rip)        # 605058 <printf@GLIBC_2.2.5>
  400c66:	68 08 00 00 00       	pushq  $0x8
  400c6b:	e9 60 ff ff ff       	jmpq   400bd0 <.plt>

0000000000400c70 <memset@plt>:
  400c70:	ff 25 ea 43 20 00    	jmpq   *0x2043ea(%rip)        # 605060 <memset@GLIBC_2.2.5>
  400c76:	68 09 00 00 00       	pushq  $0x9
  400c7b:	e9 50 ff ff ff       	jmpq   400bd0 <.plt>

0000000000400c80 <alarm@plt>:
  400c80:	ff 25 e2 43 20 00    	jmpq   *0x2043e2(%rip)        # 605068 <alarm@GLIBC_2.2.5>
  400c86:	68 0a 00 00 00       	pushq  $0xa
  400c8b:	e9 40 ff ff ff       	jmpq   400bd0 <.plt>

0000000000400c90 <close@plt>:
  400c90:	ff 25 da 43 20 00    	jmpq   *0x2043da(%rip)        # 605070 <close@GLIBC_2.2.5>
  400c96:	68 0b 00 00 00       	pushq  $0xb
  400c9b:	e9 30 ff ff ff       	jmpq   400bd0 <.plt>

0000000000400ca0 <read@plt>:
  400ca0:	ff 25 d2 43 20 00    	jmpq   *0x2043d2(%rip)        # 605078 <read@GLIBC_2.2.5>
  400ca6:	68 0c 00 00 00       	pushq  $0xc
  400cab:	e9 20 ff ff ff       	jmpq   400bd0 <.plt>

0000000000400cb0 <__libc_start_main@plt>:
  400cb0:	ff 25 ca 43 20 00    	jmpq   *0x2043ca(%rip)        # 605080 <__libc_start_main@GLIBC_2.2.5>
  400cb6:	68 0d 00 00 00       	pushq  $0xd
  400cbb:	e9 10 ff ff ff       	jmpq   400bd0 <.plt>

0000000000400cc0 <signal@plt>:
  400cc0:	ff 25 c2 43 20 00    	jmpq   *0x2043c2(%rip)        # 605088 <signal@GLIBC_2.2.5>
  400cc6:	68 0e 00 00 00       	pushq  $0xe
  400ccb:	e9 00 ff ff ff       	jmpq   400bd0 <.plt>

0000000000400cd0 <gethostbyname@plt>:
  400cd0:	ff 25 ba 43 20 00    	jmpq   *0x2043ba(%rip)        # 605090 <gethostbyname@GLIBC_2.2.5>
  400cd6:	68 0f 00 00 00       	pushq  $0xf
  400cdb:	e9 f0 fe ff ff       	jmpq   400bd0 <.plt>

0000000000400ce0 <fprintf@plt>:
  400ce0:	ff 25 b2 43 20 00    	jmpq   *0x2043b2(%rip)        # 605098 <fprintf@GLIBC_2.2.5>
  400ce6:	68 10 00 00 00       	pushq  $0x10
  400ceb:	e9 e0 fe ff ff       	jmpq   400bd0 <.plt>

0000000000400cf0 <strtol@plt>:
  400cf0:	ff 25 aa 43 20 00    	jmpq   *0x2043aa(%rip)        # 6050a0 <strtol@GLIBC_2.2.5>
  400cf6:	68 11 00 00 00       	pushq  $0x11
  400cfb:	e9 d0 fe ff ff       	jmpq   400bd0 <.plt>

0000000000400d00 <memcpy@plt>:
  400d00:	ff 25 a2 43 20 00    	jmpq   *0x2043a2(%rip)        # 6050a8 <memcpy@GLIBC_2.14>
  400d06:	68 12 00 00 00       	pushq  $0x12
  400d0b:	e9 c0 fe ff ff       	jmpq   400bd0 <.plt>

0000000000400d10 <time@plt>:
  400d10:	ff 25 9a 43 20 00    	jmpq   *0x20439a(%rip)        # 6050b0 <time@GLIBC_2.2.5>
  400d16:	68 13 00 00 00       	pushq  $0x13
  400d1b:	e9 b0 fe ff ff       	jmpq   400bd0 <.plt>

0000000000400d20 <random@plt>:
  400d20:	ff 25 92 43 20 00    	jmpq   *0x204392(%rip)        # 6050b8 <random@GLIBC_2.2.5>
  400d26:	68 14 00 00 00       	pushq  $0x14
  400d2b:	e9 a0 fe ff ff       	jmpq   400bd0 <.plt>

0000000000400d30 <_IO_getc@plt>:
  400d30:	ff 25 8a 43 20 00    	jmpq   *0x20438a(%rip)        # 6050c0 <_IO_getc@GLIBC_2.2.5>
  400d36:	68 15 00 00 00       	pushq  $0x15
  400d3b:	e9 90 fe ff ff       	jmpq   400bd0 <.plt>

0000000000400d40 <__isoc99_sscanf@plt>:
  400d40:	ff 25 82 43 20 00    	jmpq   *0x204382(%rip)        # 6050c8 <__isoc99_sscanf@GLIBC_2.7>
  400d46:	68 16 00 00 00       	pushq  $0x16
  400d4b:	e9 80 fe ff ff       	jmpq   400bd0 <.plt>

0000000000400d50 <munmap@plt>:
  400d50:	ff 25 7a 43 20 00    	jmpq   *0x20437a(%rip)        # 6050d0 <munmap@GLIBC_2.2.5>
  400d56:	68 17 00 00 00       	pushq  $0x17
  400d5b:	e9 70 fe ff ff       	jmpq   400bd0 <.plt>

0000000000400d60 <bcopy@plt>:
  400d60:	ff 25 72 43 20 00    	jmpq   *0x204372(%rip)        # 6050d8 <bcopy@GLIBC_2.2.5>
  400d66:	68 18 00 00 00       	pushq  $0x18
  400d6b:	e9 60 fe ff ff       	jmpq   400bd0 <.plt>

0000000000400d70 <fopen@plt>:
  400d70:	ff 25 6a 43 20 00    	jmpq   *0x20436a(%rip)        # 6050e0 <fopen@GLIBC_2.2.5>
  400d76:	68 19 00 00 00       	pushq  $0x19
  400d7b:	e9 50 fe ff ff       	jmpq   400bd0 <.plt>

0000000000400d80 <getopt@plt>:
  400d80:	ff 25 62 43 20 00    	jmpq   *0x204362(%rip)        # 6050e8 <getopt@GLIBC_2.2.5>
  400d86:	68 1a 00 00 00       	pushq  $0x1a
  400d8b:	e9 40 fe ff ff       	jmpq   400bd0 <.plt>

0000000000400d90 <strtoul@plt>:
  400d90:	ff 25 5a 43 20 00    	jmpq   *0x20435a(%rip)        # 6050f0 <strtoul@GLIBC_2.2.5>
  400d96:	68 1b 00 00 00       	pushq  $0x1b
  400d9b:	e9 30 fe ff ff       	jmpq   400bd0 <.plt>

0000000000400da0 <gethostname@plt>:
  400da0:	ff 25 52 43 20 00    	jmpq   *0x204352(%rip)        # 6050f8 <gethostname@GLIBC_2.2.5>
  400da6:	68 1c 00 00 00       	pushq  $0x1c
  400dab:	e9 20 fe ff ff       	jmpq   400bd0 <.plt>

0000000000400db0 <sprintf@plt>:
  400db0:	ff 25 4a 43 20 00    	jmpq   *0x20434a(%rip)        # 605100 <sprintf@GLIBC_2.2.5>
  400db6:	68 1d 00 00 00       	pushq  $0x1d
  400dbb:	e9 10 fe ff ff       	jmpq   400bd0 <.plt>

0000000000400dc0 <exit@plt>:
  400dc0:	ff 25 42 43 20 00    	jmpq   *0x204342(%rip)        # 605108 <exit@GLIBC_2.2.5>
  400dc6:	68 1e 00 00 00       	pushq  $0x1e
  400dcb:	e9 00 fe ff ff       	jmpq   400bd0 <.plt>

0000000000400dd0 <connect@plt>:
  400dd0:	ff 25 3a 43 20 00    	jmpq   *0x20433a(%rip)        # 605110 <connect@GLIBC_2.2.5>
  400dd6:	68 1f 00 00 00       	pushq  $0x1f
  400ddb:	e9 f0 fd ff ff       	jmpq   400bd0 <.plt>

0000000000400de0 <socket@plt>:
  400de0:	ff 25 32 43 20 00    	jmpq   *0x204332(%rip)        # 605118 <socket@GLIBC_2.2.5>
  400de6:	68 20 00 00 00       	pushq  $0x20
  400deb:	e9 e0 fd ff ff       	jmpq   400bd0 <.plt>

Disassembly of section .plt.got:

0000000000400df0 <.plt.got>:
  400df0:	ff 25 02 42 20 00    	jmpq   *0x204202(%rip)        # 604ff8 <__gmon_start__>
  400df6:	66 90                	xchg   %ax,%ax

Disassembly of section .text:

0000000000400e00 <_start>:
  400e00:	31 ed                	xor    %ebp,%ebp
  400e02:	49 89 d1             	mov    %rdx,%r9
  400e05:	5e                   	pop    %rsi
  400e06:	48 89 e2             	mov    %rsp,%rdx
  400e09:	48 83 e4 f0          	and    $0xfffffffffffffff0,%rsp
  400e0d:	50                   	push   %rax
  400e0e:	54                   	push   %rsp
  400e0f:	49 c7 c0 90 2c 40 00 	mov    $0x402c90,%r8
  400e16:	48 c7 c1 20 2c 40 00 	mov    $0x402c20,%rcx
  400e1d:	48 c7 c7 c0 10 40 00 	mov    $0x4010c0,%rdi
  400e24:	e8 87 fe ff ff       	callq  400cb0 <__libc_start_main@plt>
  400e29:	f4                   	hlt    
  400e2a:	66 0f 1f 44 00 00    	nopw   0x0(%rax,%rax,1)

0000000000400e30 <deregister_tm_clones>:
  400e30:	b8 97 54 60 00       	mov    $0x605497,%eax
  400e35:	55                   	push   %rbp
  400e36:	48 2d 90 54 60 00    	sub    $0x605490,%rax
  400e3c:	48 83 f8 0e          	cmp    $0xe,%rax
  400e40:	48 89 e5             	mov    %rsp,%rbp
  400e43:	77 02                	ja     400e47 <deregister_tm_clones+0x17>
  400e45:	5d                   	pop    %rbp
  400e46:	c3                   	retq   
  400e47:	b8 00 00 00 00       	mov    $0x0,%eax
  400e4c:	48 85 c0             	test   %rax,%rax
  400e4f:	74 f4                	je     400e45 <deregister_tm_clones+0x15>
  400e51:	5d                   	pop    %rbp
  400e52:	bf 90 54 60 00       	mov    $0x605490,%edi
  400e57:	ff e0                	jmpq   *%rax
  400e59:	0f 1f 80 00 00 00 00 	nopl   0x0(%rax)

0000000000400e60 <register_tm_clones>:
  400e60:	b8 90 54 60 00       	mov    $0x605490,%eax
  400e65:	55                   	push   %rbp
  400e66:	48 2d 90 54 60 00    	sub    $0x605490,%rax
  400e6c:	48 c1 f8 03          	sar    $0x3,%rax
  400e70:	48 89 e5             	mov    %rsp,%rbp
  400e73:	48 89 c2             	mov    %rax,%rdx
  400e76:	48 c1 ea 3f          	shr    $0x3f,%rdx
  400e7a:	48 01 d0             	add    %rdx,%rax
  400e7d:	48 d1 f8             	sar    %rax
  400e80:	75 02                	jne    400e84 <register_tm_clones+0x24>
  400e82:	5d                   	pop    %rbp
  400e83:	c3                   	retq   
  400e84:	ba 00 00 00 00       	mov    $0x0,%edx
  400e89:	48 85 d2             	test   %rdx,%rdx
  400e8c:	74 f4                	je     400e82 <register_tm_clones+0x22>
  400e8e:	5d                   	pop    %rbp
  400e8f:	48 89 c6             	mov    %rax,%rsi
  400e92:	bf 90 54 60 00       	mov    $0x605490,%edi
  400e97:	ff e2                	jmpq   *%rdx
  400e99:	0f 1f 80 00 00 00 00 	nopl   0x0(%rax)

0000000000400ea0 <__do_global_dtors_aux>:
  400ea0:	80 3d 11 46 20 00 00 	cmpb   $0x0,0x204611(%rip)        # 6054b8 <completed.6355>
  400ea7:	75 11                	jne    400eba <__do_global_dtors_aux+0x1a>
  400ea9:	55                   	push   %rbp
  400eaa:	48 89 e5             	mov    %rsp,%rbp
  400ead:	e8 7e ff ff ff       	callq  400e30 <deregister_tm_clones>
  400eb2:	5d                   	pop    %rbp
  400eb3:	c6 05 fe 45 20 00 01 	movb   $0x1,0x2045fe(%rip)        # 6054b8 <completed.6355>
  400eba:	f3 c3                	repz retq 
  400ebc:	0f 1f 40 00          	nopl   0x0(%rax)

0000000000400ec0 <frame_dummy>:
  400ec0:	48 83 3d 58 3f 20 00 	cmpq   $0x0,0x203f58(%rip)        # 604e20 <__JCR_END__>
  400ec7:	00 
  400ec8:	74 1e                	je     400ee8 <frame_dummy+0x28>
  400eca:	b8 00 00 00 00       	mov    $0x0,%eax
  400ecf:	48 85 c0             	test   %rax,%rax
  400ed2:	74 14                	je     400ee8 <frame_dummy+0x28>
  400ed4:	55                   	push   %rbp
  400ed5:	bf 20 4e 60 00       	mov    $0x604e20,%edi
  400eda:	48 89 e5             	mov    %rsp,%rbp
  400edd:	ff d0                	callq  *%rax
  400edf:	5d                   	pop    %rbp
  400ee0:	e9 7b ff ff ff       	jmpq   400e60 <register_tm_clones>
  400ee5:	0f 1f 00             	nopl   (%rax)
  400ee8:	e9 73 ff ff ff       	jmpq   400e60 <register_tm_clones>
  400eed:	0f 1f 00             	nopl   (%rax)

0000000000400ef0 <usage>:
  400ef0:	48 83 ec 08          	sub    $0x8,%rsp
  400ef4:	48 89 fe             	mov    %rdi,%rsi
  400ef7:	83 3d ea 45 20 00 00 	cmpl   $0x0,0x2045ea(%rip)        # 6054e8 <is_checker>
  400efe:	74 39                	je     400f39 <usage+0x49>
  400f00:	bf b0 2c 40 00       	mov    $0x402cb0,%edi
  400f05:	b8 00 00 00 00       	mov    $0x0,%eax
  400f0a:	e8 51 fd ff ff       	callq  400c60 <printf@plt>
  400f0f:	bf e8 2c 40 00       	mov    $0x402ce8,%edi
  400f14:	e8 17 fd ff ff       	callq  400c30 <puts@plt>
  400f19:	bf 60 2e 40 00       	mov    $0x402e60,%edi
  400f1e:	e8 0d fd ff ff       	callq  400c30 <puts@plt>
  400f23:	bf 10 2d 40 00       	mov    $0x402d10,%edi
  400f28:	e8 03 fd ff ff       	callq  400c30 <puts@plt>
  400f2d:	bf 7a 2e 40 00       	mov    $0x402e7a,%edi
  400f32:	e8 f9 fc ff ff       	callq  400c30 <puts@plt>
  400f37:	eb 2d                	jmp    400f66 <usage+0x76>
  400f39:	bf 96 2e 40 00       	mov    $0x402e96,%edi
  400f3e:	b8 00 00 00 00       	mov    $0x0,%eax
  400f43:	e8 18 fd ff ff       	callq  400c60 <printf@plt>
  400f48:	bf 38 2d 40 00       	mov    $0x402d38,%edi
  400f4d:	e8 de fc ff ff       	callq  400c30 <puts@plt>
  400f52:	bf 60 2d 40 00       	mov    $0x402d60,%edi
  400f57:	e8 d4 fc ff ff       	callq  400c30 <puts@plt>
  400f5c:	bf b4 2e 40 00       	mov    $0x402eb4,%edi
  400f61:	e8 ca fc ff ff       	callq  400c30 <puts@plt>
  400f66:	bf 00 00 00 00       	mov    $0x0,%edi
  400f6b:	e8 50 fe ff ff       	callq  400dc0 <exit@plt>

0000000000400f70 <initialize_target>:
  400f70:	55                   	push   %rbp
  400f71:	53                   	push   %rbx
  400f72:	48 81 ec 08 21 00 00 	sub    $0x2108,%rsp
  400f79:	89 f5                	mov    %esi,%ebp
  400f7b:	89 3d 57 45 20 00    	mov    %edi,0x204557(%rip)        # 6054d8 <check_level>
  400f81:	8b 3d c1 41 20 00    	mov    0x2041c1(%rip),%edi        # 605148 <target_id>
  400f87:	e8 67 1c 00 00       	callq  402bf3 <gencookie>
  400f8c:	89 05 52 45 20 00    	mov    %eax,0x204552(%rip)        # 6054e4 <cookie>
  400f92:	89 c7                	mov    %eax,%edi
  400f94:	e8 5a 1c 00 00       	callq  402bf3 <gencookie>
  400f99:	89 05 41 45 20 00    	mov    %eax,0x204541(%rip)        # 6054e0 <authkey>
  400f9f:	8b 05 a3 41 20 00    	mov    0x2041a3(%rip),%eax        # 605148 <target_id>
  400fa5:	8d 78 01             	lea    0x1(%rax),%edi
  400fa8:	e8 53 fc ff ff       	callq  400c00 <srandom@plt>
  400fad:	e8 6e fd ff ff       	callq  400d20 <random@plt>
  400fb2:	89 c7                	mov    %eax,%edi
  400fb4:	e8 ca 02 00 00       	callq  401283 <scramble>
  400fb9:	89 c3                	mov    %eax,%ebx
  400fbb:	85 ed                	test   %ebp,%ebp
  400fbd:	74 18                	je     400fd7 <initialize_target+0x67>
  400fbf:	bf 00 00 00 00       	mov    $0x0,%edi
  400fc4:	e8 47 fd ff ff       	callq  400d10 <time@plt>
  400fc9:	89 c7                	mov    %eax,%edi
  400fcb:	e8 30 fc ff ff       	callq  400c00 <srandom@plt>
  400fd0:	e8 4b fd ff ff       	callq  400d20 <random@plt>
  400fd5:	eb 05                	jmp    400fdc <initialize_target+0x6c>
  400fd7:	b8 00 00 00 00       	mov    $0x0,%eax
  400fdc:	01 c3                	add    %eax,%ebx
  400fde:	0f b7 db             	movzwl %bx,%ebx
  400fe1:	8d 04 dd 00 01 00 00 	lea    0x100(,%rbx,8),%eax
  400fe8:	89 c0                	mov    %eax,%eax
  400fea:	48 89 05 8f 44 20 00 	mov    %rax,0x20448f(%rip)        # 605480 <buf_offset>
  400ff1:	c6 05 10 51 20 00 72 	movb   $0x72,0x205110(%rip)        # 606108 <target_prefix>
  400ff8:	83 3d 89 44 20 00 00 	cmpl   $0x0,0x204489(%rip)        # 605488 <notify>
  400fff:	0f 84 b1 00 00 00    	je     4010b6 <initialize_target+0x146>
  401005:	83 3d dc 44 20 00 00 	cmpl   $0x0,0x2044dc(%rip)        # 6054e8 <is_checker>
  40100c:	0f 85 a4 00 00 00    	jne    4010b6 <initialize_target+0x146>
  401012:	be 00 01 00 00       	mov    $0x100,%esi
  401017:	48 89 e7             	mov    %rsp,%rdi
  40101a:	e8 81 fd ff ff       	callq  400da0 <gethostname@plt>
  40101f:	85 c0                	test   %eax,%eax
  401021:	74 25                	je     401048 <initialize_target+0xd8>
  401023:	bf 90 2d 40 00       	mov    $0x402d90,%edi
  401028:	e8 03 fc ff ff       	callq  400c30 <puts@plt>
  40102d:	bf 08 00 00 00       	mov    $0x8,%edi
  401032:	e8 89 fd ff ff       	callq  400dc0 <exit@plt>
  401037:	48 89 e6             	mov    %rsp,%rsi
  40103a:	e8 a1 fb ff ff       	callq  400be0 <strcasecmp@plt>
  40103f:	85 c0                	test   %eax,%eax
  401041:	74 21                	je     401064 <initialize_target+0xf4>
  401043:	83 c3 01             	add    $0x1,%ebx
  401046:	eb 05                	jmp    40104d <initialize_target+0xdd>
  401048:	bb 00 00 00 00       	mov    $0x0,%ebx
  40104d:	48 63 c3             	movslq %ebx,%rax
  401050:	48 8b 3c c5 60 51 60 	mov    0x605160(,%rax,8),%rdi
  401057:	00 
  401058:	48 85 ff             	test   %rdi,%rdi
  40105b:	75 da                	jne    401037 <initialize_target+0xc7>
  40105d:	b8 00 00 00 00       	mov    $0x0,%eax
  401062:	eb 05                	jmp    401069 <initialize_target+0xf9>
  401064:	b8 01 00 00 00       	mov    $0x1,%eax
  401069:	85 c0                	test   %eax,%eax
  40106b:	75 17                	jne    401084 <initialize_target+0x114>
  40106d:	48 89 e6             	mov    %rsp,%rsi
  401070:	bf c8 2d 40 00       	mov    $0x402dc8,%edi
  401075:	e8 e6 fb ff ff       	callq  400c60 <printf@plt>
  40107a:	bf 08 00 00 00       	mov    $0x8,%edi
  40107f:	e8 3c fd ff ff       	callq  400dc0 <exit@plt>
  401084:	48 8d bc 24 00 01 00 	lea    0x100(%rsp),%rdi
  40108b:	00 
  40108c:	e8 f9 18 00 00       	callq  40298a <init_driver>
  401091:	85 c0                	test   %eax,%eax
  401093:	79 21                	jns    4010b6 <initialize_target+0x146>
  401095:	48 8d b4 24 00 01 00 	lea    0x100(%rsp),%rsi
  40109c:	00 
  40109d:	bf 08 2e 40 00       	mov    $0x402e08,%edi
  4010a2:	b8 00 00 00 00       	mov    $0x0,%eax
  4010a7:	e8 b4 fb ff ff       	callq  400c60 <printf@plt>
  4010ac:	bf 08 00 00 00       	mov    $0x8,%edi
  4010b1:	e8 0a fd ff ff       	callq  400dc0 <exit@plt>
  4010b6:	48 81 c4 08 21 00 00 	add    $0x2108,%rsp
  4010bd:	5b                   	pop    %rbx
  4010be:	5d                   	pop    %rbp
  4010bf:	c3                   	retq   

00000000004010c0 <main>:
  4010c0:	41 56                	push   %r14
  4010c2:	41 55                	push   %r13
  4010c4:	41 54                	push   %r12
  4010c6:	55                   	push   %rbp
  4010c7:	53                   	push   %rbx
  4010c8:	41 89 fc             	mov    %edi,%r12d
  4010cb:	48 89 f3             	mov    %rsi,%rbx
  4010ce:	be b1 1d 40 00       	mov    $0x401db1,%esi
  4010d3:	bf 0b 00 00 00       	mov    $0xb,%edi
  4010d8:	e8 e3 fb ff ff       	callq  400cc0 <signal@plt>
  4010dd:	be 63 1d 40 00       	mov    $0x401d63,%esi
  4010e2:	bf 07 00 00 00       	mov    $0x7,%edi
  4010e7:	e8 d4 fb ff ff       	callq  400cc0 <signal@plt>
  4010ec:	be ff 1d 40 00       	mov    $0x401dff,%esi
  4010f1:	bf 04 00 00 00       	mov    $0x4,%edi
  4010f6:	e8 c5 fb ff ff       	callq  400cc0 <signal@plt>
  4010fb:	83 3d e6 43 20 00 00 	cmpl   $0x0,0x2043e6(%rip)        # 6054e8 <is_checker>
  401102:	74 20                	je     401124 <main+0x64>
  401104:	be 4d 1e 40 00       	mov    $0x401e4d,%esi
  401109:	bf 0e 00 00 00       	mov    $0xe,%edi
  40110e:	e8 ad fb ff ff       	callq  400cc0 <signal@plt>
  401113:	bf 05 00 00 00       	mov    $0x5,%edi
  401118:	e8 63 fb ff ff       	callq  400c80 <alarm@plt>
  40111d:	bd d2 2e 40 00       	mov    $0x402ed2,%ebp
  401122:	eb 05                	jmp    401129 <main+0x69>
  401124:	bd cd 2e 40 00       	mov    $0x402ecd,%ebp
  401129:	48 8b 05 70 43 20 00 	mov    0x204370(%rip),%rax        # 6054a0 <stdin@@GLIBC_2.2.5>
  401130:	48 89 05 99 43 20 00 	mov    %rax,0x204399(%rip)        # 6054d0 <infile>
  401137:	41 bd 00 00 00 00    	mov    $0x0,%r13d
  40113d:	41 be 00 00 00 00    	mov    $0x0,%r14d
  401143:	e9 b9 00 00 00       	jmpq   401201 <main+0x141>
  401148:	83 e8 61             	sub    $0x61,%eax
  40114b:	3c 10                	cmp    $0x10,%al
  40114d:	0f 87 93 00 00 00    	ja     4011e6 <main+0x126>
  401153:	0f b6 c0             	movzbl %al,%eax
  401156:	ff 24 c5 18 2f 40 00 	jmpq   *0x402f18(,%rax,8)
  40115d:	48 8b 3b             	mov    (%rbx),%rdi
  401160:	e8 8b fd ff ff       	callq  400ef0 <usage>
  401165:	be 6d 32 40 00       	mov    $0x40326d,%esi
  40116a:	48 8b 3d 37 43 20 00 	mov    0x204337(%rip),%rdi        # 6054a8 <optarg@@GLIBC_2.2.5>
  401171:	e8 fa fb ff ff       	callq  400d70 <fopen@plt>
  401176:	48 89 05 53 43 20 00 	mov    %rax,0x204353(%rip)        # 6054d0 <infile>
  40117d:	48 85 c0             	test   %rax,%rax
  401180:	75 7f                	jne    401201 <main+0x141>
  401182:	48 8b 15 1f 43 20 00 	mov    0x20431f(%rip),%rdx        # 6054a8 <optarg@@GLIBC_2.2.5>
  401189:	be da 2e 40 00       	mov    $0x402eda,%esi
  40118e:	48 8b 3d 1b 43 20 00 	mov    0x20431b(%rip),%rdi        # 6054b0 <stderr@@GLIBC_2.2.5>
  401195:	e8 46 fb ff ff       	callq  400ce0 <fprintf@plt>
  40119a:	b8 01 00 00 00       	mov    $0x1,%eax
  40119f:	e9 d6 00 00 00       	jmpq   40127a <main+0x1ba>
  4011a4:	ba 10 00 00 00       	mov    $0x10,%edx
  4011a9:	be 00 00 00 00       	mov    $0x0,%esi
  4011ae:	48 8b 3d f3 42 20 00 	mov    0x2042f3(%rip),%rdi        # 6054a8 <optarg@@GLIBC_2.2.5>
  4011b5:	e8 d6 fb ff ff       	callq  400d90 <strtoul@plt>
  4011ba:	41 89 c6             	mov    %eax,%r14d
  4011bd:	eb 42                	jmp    401201 <main+0x141>
  4011bf:	ba 0a 00 00 00       	mov    $0xa,%edx
  4011c4:	be 00 00 00 00       	mov    $0x0,%esi
  4011c9:	48 8b 3d d8 42 20 00 	mov    0x2042d8(%rip),%rdi        # 6054a8 <optarg@@GLIBC_2.2.5>
  4011d0:	e8 1b fb ff ff       	callq  400cf0 <strtol@plt>
  4011d5:	41 89 c5             	mov    %eax,%r13d
  4011d8:	eb 27                	jmp    401201 <main+0x141>
  4011da:	c7 05 a4 42 20 00 00 	movl   $0x0,0x2042a4(%rip)        # 605488 <notify>
  4011e1:	00 00 00 
  4011e4:	eb 1b                	jmp    401201 <main+0x141>
  4011e6:	40 0f be f6          	movsbl %sil,%esi
  4011ea:	bf f7 2e 40 00       	mov    $0x402ef7,%edi
  4011ef:	b8 00 00 00 00       	mov    $0x0,%eax
  4011f4:	e8 67 fa ff ff       	callq  400c60 <printf@plt>
  4011f9:	48 8b 3b             	mov    (%rbx),%rdi
  4011fc:	e8 ef fc ff ff       	callq  400ef0 <usage>
  401201:	48 89 ea             	mov    %rbp,%rdx
  401204:	48 89 de             	mov    %rbx,%rsi
  401207:	44 89 e7             	mov    %r12d,%edi
  40120a:	e8 71 fb ff ff       	callq  400d80 <getopt@plt>
  40120f:	89 c6                	mov    %eax,%esi
  401211:	3c ff                	cmp    $0xff,%al
  401213:	0f 85 2f ff ff ff    	jne    401148 <main+0x88>
  401219:	be 01 00 00 00       	mov    $0x1,%esi
  40121e:	44 89 ef             	mov    %r13d,%edi
  401221:	e8 4a fd ff ff       	callq  400f70 <initialize_target>
  401226:	83 3d bb 42 20 00 00 	cmpl   $0x0,0x2042bb(%rip)        # 6054e8 <is_checker>
  40122d:	74 25                	je     401254 <main+0x194>
  40122f:	44 3b 35 aa 42 20 00 	cmp    0x2042aa(%rip),%r14d        # 6054e0 <authkey>
  401236:	74 1c                	je     401254 <main+0x194>
  401238:	44 89 f6             	mov    %r14d,%esi
  40123b:	bf 30 2e 40 00       	mov    $0x402e30,%edi
  401240:	b8 00 00 00 00       	mov    $0x0,%eax
  401245:	e8 16 fa ff ff       	callq  400c60 <printf@plt>
  40124a:	b8 00 00 00 00       	mov    $0x0,%eax
  40124f:	e8 17 08 00 00       	callq  401a6b <check_fail>
  401254:	8b 35 8a 42 20 00    	mov    0x20428a(%rip),%esi        # 6054e4 <cookie>
  40125a:	bf 0a 2f 40 00       	mov    $0x402f0a,%edi
  40125f:	b8 00 00 00 00       	mov    $0x0,%eax
  401264:	e8 f7 f9 ff ff       	callq  400c60 <printf@plt>
  401269:	48 8b 3d 10 42 20 00 	mov    0x204210(%rip),%rdi        # 605480 <buf_offset>
  401270:	e8 26 0c 00 00       	callq  401e9b <launch>
  401275:	b8 00 00 00 00       	mov    $0x0,%eax
  40127a:	5b                   	pop    %rbx
  40127b:	5d                   	pop    %rbp
  40127c:	41 5c                	pop    %r12
  40127e:	41 5d                	pop    %r13
  401280:	41 5e                	pop    %r14
  401282:	c3                   	retq   

0000000000401283 <scramble>:
  401283:	b8 00 00 00 00       	mov    $0x0,%eax
  401288:	eb 11                	jmp    40129b <scramble+0x18>
  40128a:	69 c8 6c 76 00 00    	imul   $0x766c,%eax,%ecx
  401290:	01 f9                	add    %edi,%ecx
  401292:	89 c2                	mov    %eax,%edx
  401294:	89 4c 94 d0          	mov    %ecx,-0x30(%rsp,%rdx,4)
  401298:	83 c0 01             	add    $0x1,%eax
  40129b:	83 f8 09             	cmp    $0x9,%eax
  40129e:	76 ea                	jbe    40128a <scramble+0x7>
  4012a0:	8b 44 24 f0          	mov    -0x10(%rsp),%eax
  4012a4:	69 c0 0c 24 00 00    	imul   $0x240c,%eax,%eax
  4012aa:	89 44 24 f0          	mov    %eax,-0x10(%rsp)
  4012ae:	8b 44 24 dc          	mov    -0x24(%rsp),%eax
  4012b2:	69 c0 b0 51 00 00    	imul   $0x51b0,%eax,%eax
  4012b8:	89 44 24 dc          	mov    %eax,-0x24(%rsp)
  4012bc:	8b 44 24 d8          	mov    -0x28(%rsp),%eax
  4012c0:	69 c0 03 c5 00 00    	imul   $0xc503,%eax,%eax
  4012c6:	89 44 24 d8          	mov    %eax,-0x28(%rsp)
  4012ca:	8b 44 24 d8          	mov    -0x28(%rsp),%eax
  4012ce:	69 c0 02 fa 00 00    	imul   $0xfa02,%eax,%eax
  4012d4:	89 44 24 d8          	mov    %eax,-0x28(%rsp)
  4012d8:	8b 44 24 e0          	mov    -0x20(%rsp),%eax
  4012dc:	69 c0 73 42 00 00    	imul   $0x4273,%eax,%eax
  4012e2:	89 44 24 e0          	mov    %eax,-0x20(%rsp)
  4012e6:	8b 44 24 ec          	mov    -0x14(%rsp),%eax
  4012ea:	69 c0 69 c0 00 00    	imul   $0xc069,%eax,%eax
  4012f0:	89 44 24 ec          	mov    %eax,-0x14(%rsp)
  4012f4:	8b 44 24 d8          	mov    -0x28(%rsp),%eax
  4012f8:	69 c0 50 7c 00 00    	imul   $0x7c50,%eax,%eax
  4012fe:	89 44 24 d8          	mov    %eax,-0x28(%rsp)
  401302:	8b 44 24 d8          	mov    -0x28(%rsp),%eax
  401306:	69 c0 b3 bf 00 00    	imul   $0xbfb3,%eax,%eax
  40130c:	89 44 24 d8          	mov    %eax,-0x28(%rsp)
  401310:	8b 44 24 f4          	mov    -0xc(%rsp),%eax
  401314:	69 c0 a4 e5 00 00    	imul   $0xe5a4,%eax,%eax
  40131a:	89 44 24 f4          	mov    %eax,-0xc(%rsp)
  40131e:	8b 44 24 e4          	mov    -0x1c(%rsp),%eax
  401322:	69 c0 e8 94 00 00    	imul   $0x94e8,%eax,%eax
  401328:	89 44 24 e4          	mov    %eax,-0x1c(%rsp)
  40132c:	8b 44 24 f0          	mov    -0x10(%rsp),%eax
  401330:	69 c0 c2 bb 00 00    	imul   $0xbbc2,%eax,%eax
  401336:	89 44 24 f0          	mov    %eax,-0x10(%rsp)
  40133a:	8b 44 24 d8          	mov    -0x28(%rsp),%eax
  40133e:	69 c0 ea 7f 00 00    	imul   $0x7fea,%eax,%eax
  401344:	89 44 24 d8          	mov    %eax,-0x28(%rsp)
  401348:	8b 44 24 ec          	mov    -0x14(%rsp),%eax
  40134c:	69 c0 63 50 00 00    	imul   $0x5063,%eax,%eax
  401352:	89 44 24 ec          	mov    %eax,-0x14(%rsp)
  401356:	8b 44 24 dc          	mov    -0x24(%rsp),%eax
  40135a:	69 c0 bd 70 00 00    	imul   $0x70bd,%eax,%eax
  401360:	89 44 24 dc          	mov    %eax,-0x24(%rsp)
  401364:	8b 44 24 f0          	mov    -0x10(%rsp),%eax
  401368:	69 c0 69 9d 00 00    	imul   $0x9d69,%eax,%eax
  40136e:	89 44 24 f0          	mov    %eax,-0x10(%rsp)
  401372:	8b 44 24 d4          	mov    -0x2c(%rsp),%eax
  401376:	69 c0 4d d7 00 00    	imul   $0xd74d,%eax,%eax
  40137c:	89 44 24 d4          	mov    %eax,-0x2c(%rsp)
  401380:	8b 44 24 dc          	mov    -0x24(%rsp),%eax
  401384:	69 c0 13 ba 00 00    	imul   $0xba13,%eax,%eax
  40138a:	89 44 24 dc          	mov    %eax,-0x24(%rsp)
  40138e:	8b 44 24 e8          	mov    -0x18(%rsp),%eax
  401392:	69 c0 0f 51 00 00    	imul   $0x510f,%eax,%eax
  401398:	89 44 24 e8          	mov    %eax,-0x18(%rsp)
  40139c:	8b 44 24 dc          	mov    -0x24(%rsp),%eax
  4013a0:	69 c0 15 bc 00 00    	imul   $0xbc15,%eax,%eax
  4013a6:	89 44 24 dc          	mov    %eax,-0x24(%rsp)
  4013aa:	8b 44 24 d8          	mov    -0x28(%rsp),%eax
  4013ae:	69 c0 0f 8d 00 00    	imul   $0x8d0f,%eax,%eax
  4013b4:	89 44 24 d8          	mov    %eax,-0x28(%rsp)
  4013b8:	8b 44 24 f0          	mov    -0x10(%rsp),%eax
  4013bc:	69 c0 6f aa 00 00    	imul   $0xaa6f,%eax,%eax
  4013c2:	89 44 24 f0          	mov    %eax,-0x10(%rsp)
  4013c6:	8b 44 24 e0          	mov    -0x20(%rsp),%eax
  4013ca:	69 c0 25 d2 00 00    	imul   $0xd225,%eax,%eax
  4013d0:	89 44 24 e0          	mov    %eax,-0x20(%rsp)
  4013d4:	8b 44 24 e8          	mov    -0x18(%rsp),%eax
  4013d8:	69 c0 b2 c1 00 00    	imul   $0xc1b2,%eax,%eax
  4013de:	89 44 24 e8          	mov    %eax,-0x18(%rsp)
  4013e2:	8b 44 24 f4          	mov    -0xc(%rsp),%eax
  4013e6:	69 c0 ce c7 00 00    	imul   $0xc7ce,%eax,%eax
  4013ec:	89 44 24 f4          	mov    %eax,-0xc(%rsp)
  4013f0:	8b 44 24 d8          	mov    -0x28(%rsp),%eax
  4013f4:	69 c0 e2 c0 00 00    	imul   $0xc0e2,%eax,%eax
  4013fa:	89 44 24 d8          	mov    %eax,-0x28(%rsp)
  4013fe:	8b 44 24 f0          	mov    -0x10(%rsp),%eax
  401402:	69 c0 4a a3 00 00    	imul   $0xa34a,%eax,%eax
  401408:	89 44 24 f0          	mov    %eax,-0x10(%rsp)
  40140c:	8b 44 24 d0          	mov    -0x30(%rsp),%eax
  401410:	69 c0 f8 71 00 00    	imul   $0x71f8,%eax,%eax
  401416:	89 44 24 d0          	mov    %eax,-0x30(%rsp)
  40141a:	8b 44 24 e8          	mov    -0x18(%rsp),%eax
  40141e:	69 c0 a0 5d 00 00    	imul   $0x5da0,%eax,%eax
  401424:	89 44 24 e8          	mov    %eax,-0x18(%rsp)
  401428:	8b 44 24 f0          	mov    -0x10(%rsp),%eax
  40142c:	69 c0 b9 42 00 00    	imul   $0x42b9,%eax,%eax
  401432:	89 44 24 f0          	mov    %eax,-0x10(%rsp)
  401436:	8b 44 24 d4          	mov    -0x2c(%rsp),%eax
  40143a:	69 c0 3d 23 00 00    	imul   $0x233d,%eax,%eax
  401440:	89 44 24 d4          	mov    %eax,-0x2c(%rsp)
  401444:	8b 44 24 d8          	mov    -0x28(%rsp),%eax
  401448:	69 c0 f8 11 00 00    	imul   $0x11f8,%eax,%eax
  40144e:	89 44 24 d8          	mov    %eax,-0x28(%rsp)
  401452:	8b 44 24 f4          	mov    -0xc(%rsp),%eax
  401456:	69 c0 98 a1 00 00    	imul   $0xa198,%eax,%eax
  40145c:	89 44 24 f4          	mov    %eax,-0xc(%rsp)
  401460:	8b 44 24 f4          	mov    -0xc(%rsp),%eax
  401464:	69 c0 87 23 00 00    	imul   $0x2387,%eax,%eax
  40146a:	89 44 24 f4          	mov    %eax,-0xc(%rsp)
  40146e:	8b 44 24 e0          	mov    -0x20(%rsp),%eax
  401472:	69 c0 22 4b 00 00    	imul   $0x4b22,%eax,%eax
  401478:	89 44 24 e0          	mov    %eax,-0x20(%rsp)
  40147c:	8b 44 24 ec          	mov    -0x14(%rsp),%eax
  401480:	69 c0 b9 3d 00 00    	imul   $0x3db9,%eax,%eax
  401486:	89 44 24 ec          	mov    %eax,-0x14(%rsp)
  40148a:	8b 44 24 e0          	mov    -0x20(%rsp),%eax
  40148e:	69 c0 24 de 00 00    	imul   $0xde24,%eax,%eax
  401494:	89 44 24 e0          	mov    %eax,-0x20(%rsp)
  401498:	8b 44 24 f4          	mov    -0xc(%rsp),%eax
  40149c:	69 c0 a9 25 00 00    	imul   $0x25a9,%eax,%eax
  4014a2:	89 44 24 f4          	mov    %eax,-0xc(%rsp)
  4014a6:	8b 44 24 f4          	mov    -0xc(%rsp),%eax
  4014aa:	69 c0 e8 0e 00 00    	imul   $0xee8,%eax,%eax
  4014b0:	89 44 24 f4          	mov    %eax,-0xc(%rsp)
  4014b4:	8b 44 24 ec          	mov    -0x14(%rsp),%eax
  4014b8:	69 c0 22 42 00 00    	imul   $0x4222,%eax,%eax
  4014be:	89 44 24 ec          	mov    %eax,-0x14(%rsp)
  4014c2:	8b 44 24 e8          	mov    -0x18(%rsp),%eax
  4014c6:	69 c0 b2 8e 00 00    	imul   $0x8eb2,%eax,%eax
  4014cc:	89 44 24 e8          	mov    %eax,-0x18(%rsp)
  4014d0:	8b 44 24 ec          	mov    -0x14(%rsp),%eax
  4014d4:	69 c0 6d 33 00 00    	imul   $0x336d,%eax,%eax
  4014da:	89 44 24 ec          	mov    %eax,-0x14(%rsp)
  4014de:	8b 44 24 d8          	mov    -0x28(%rsp),%eax
  4014e2:	69 c0 a8 7f 00 00    	imul   $0x7fa8,%eax,%eax
  4014e8:	89 44 24 d8          	mov    %eax,-0x28(%rsp)
  4014ec:	8b 44 24 e8          	mov    -0x18(%rsp),%eax
  4014f0:	69 c0 31 55 00 00    	imul   $0x5531,%eax,%eax
  4014f6:	89 44 24 e8          	mov    %eax,-0x18(%rsp)
  4014fa:	8b 44 24 ec          	mov    -0x14(%rsp),%eax
  4014fe:	69 c0 c2 67 00 00    	imul   $0x67c2,%eax,%eax
  401504:	89 44 24 ec          	mov    %eax,-0x14(%rsp)
  401508:	8b 44 24 f4          	mov    -0xc(%rsp),%eax
  40150c:	69 c0 a6 ab 00 00    	imul   $0xaba6,%eax,%eax
  401512:	89 44 24 f4          	mov    %eax,-0xc(%rsp)
  401516:	8b 44 24 e4          	mov    -0x1c(%rsp),%eax
  40151a:	69 c0 0e 78 00 00    	imul   $0x780e,%eax,%eax
  401520:	89 44 24 e4          	mov    %eax,-0x1c(%rsp)
  401524:	8b 44 24 d8          	mov    -0x28(%rsp),%eax
  401528:	69 c0 89 85 00 00    	imul   $0x8589,%eax,%eax
  40152e:	89 44 24 d8          	mov    %eax,-0x28(%rsp)
  401532:	8b 44 24 d0          	mov    -0x30(%rsp),%eax
  401536:	69 c0 aa 89 00 00    	imul   $0x89aa,%eax,%eax
  40153c:	89 44 24 d0          	mov    %eax,-0x30(%rsp)
  401540:	8b 44 24 d8          	mov    -0x28(%rsp),%eax
  401544:	69 c0 4e 0c 00 00    	imul   $0xc4e,%eax,%eax
  40154a:	89 44 24 d8          	mov    %eax,-0x28(%rsp)
  40154e:	8b 44 24 f4          	mov    -0xc(%rsp),%eax
  401552:	69 c0 ac 88 00 00    	imul   $0x88ac,%eax,%eax
  401558:	89 44 24 f4          	mov    %eax,-0xc(%rsp)
  40155c:	8b 44 24 d8          	mov    -0x28(%rsp),%eax
  401560:	69 c0 fd ac 00 00    	imul   $0xacfd,%eax,%eax
  401566:	89 44 24 d8          	mov    %eax,-0x28(%rsp)
  40156a:	8b 44 24 f0          	mov    -0x10(%rsp),%eax
  40156e:	69 c0 2f 32 00 00    	imul   $0x322f,%eax,%eax
  401574:	89 44 24 f0          	mov    %eax,-0x10(%rsp)
  401578:	8b 44 24 e0          	mov    -0x20(%rsp),%eax
  40157c:	69 c0 19 17 00 00    	imul   $0x1719,%eax,%eax
  401582:	89 44 24 e0          	mov    %eax,-0x20(%rsp)
  401586:	8b 44 24 d4          	mov    -0x2c(%rsp),%eax
  40158a:	69 c0 02 ba 00 00    	imul   $0xba02,%eax,%eax
  401590:	89 44 24 d4          	mov    %eax,-0x2c(%rsp)
  401594:	8b 44 24 f0          	mov    -0x10(%rsp),%eax
  401598:	69 c0 cf 17 00 00    	imul   $0x17cf,%eax,%eax
  40159e:	89 44 24 f0          	mov    %eax,-0x10(%rsp)
  4015a2:	8b 44 24 e0          	mov    -0x20(%rsp),%eax
  4015a6:	69 c0 3f 5c 00 00    	imul   $0x5c3f,%eax,%eax
  4015ac:	89 44 24 e0          	mov    %eax,-0x20(%rsp)
  4015b0:	8b 44 24 dc          	mov    -0x24(%rsp),%eax
  4015b4:	69 c0 b1 7a 00 00    	imul   $0x7ab1,%eax,%eax
  4015ba:	89 44 24 dc          	mov    %eax,-0x24(%rsp)
  4015be:	8b 44 24 ec          	mov    -0x14(%rsp),%eax
  4015c2:	69 c0 a2 f0 00 00    	imul   $0xf0a2,%eax,%eax
  4015c8:	89 44 24 ec          	mov    %eax,-0x14(%rsp)
  4015cc:	8b 44 24 e8          	mov    -0x18(%rsp),%eax
  4015d0:	69 c0 30 b9 00 00    	imul   $0xb930,%eax,%eax
  4015d6:	89 44 24 e8          	mov    %eax,-0x18(%rsp)
  4015da:	8b 44 24 f0          	mov    -0x10(%rsp),%eax
  4015de:	69 c0 ce 67 00 00    	imul   $0x67ce,%eax,%eax
  4015e4:	89 44 24 f0          	mov    %eax,-0x10(%rsp)
  4015e8:	8b 44 24 e0          	mov    -0x20(%rsp),%eax
  4015ec:	69 c0 63 e3 00 00    	imul   $0xe363,%eax,%eax
  4015f2:	89 44 24 e0          	mov    %eax,-0x20(%rsp)
  4015f6:	8b 44 24 d0          	mov    -0x30(%rsp),%eax
  4015fa:	69 c0 75 22 00 00    	imul   $0x2275,%eax,%eax
  401600:	89 44 24 d0          	mov    %eax,-0x30(%rsp)
  401604:	8b 44 24 d8          	mov    -0x28(%rsp),%eax
  401608:	69 c0 82 f9 00 00    	imul   $0xf982,%eax,%eax
  40160e:	89 44 24 d8          	mov    %eax,-0x28(%rsp)
  401612:	8b 44 24 d0          	mov    -0x30(%rsp),%eax
  401616:	69 c0 fc 11 00 00    	imul   $0x11fc,%eax,%eax
  40161c:	89 44 24 d0          	mov    %eax,-0x30(%rsp)
  401620:	8b 44 24 e0          	mov    -0x20(%rsp),%eax
  401624:	69 c0 ec 80 00 00    	imul   $0x80ec,%eax,%eax
  40162a:	89 44 24 e0          	mov    %eax,-0x20(%rsp)
  40162e:	8b 44 24 f0          	mov    -0x10(%rsp),%eax
  401632:	69 c0 d7 4f 00 00    	imul   $0x4fd7,%eax,%eax
  401638:	89 44 24 f0          	mov    %eax,-0x10(%rsp)
  40163c:	8b 44 24 e4          	mov    -0x1c(%rsp),%eax
  401640:	69 c0 78 01 00 00    	imul   $0x178,%eax,%eax
  401646:	89 44 24 e4          	mov    %eax,-0x1c(%rsp)
  40164a:	8b 44 24 d8          	mov    -0x28(%rsp),%eax
  40164e:	8d 04 c0             	lea    (%rax,%rax,8),%eax
  401651:	c1 e0 04             	shl    $0x4,%eax
  401654:	89 44 24 d8          	mov    %eax,-0x28(%rsp)
  401658:	8b 44 24 f0          	mov    -0x10(%rsp),%eax
  40165c:	69 c0 1f c3 00 00    	imul   $0xc31f,%eax,%eax
  401662:	89 44 24 f0          	mov    %eax,-0x10(%rsp)
  401666:	8b 44 24 e0          	mov    -0x20(%rsp),%eax
  40166a:	69 c0 cd 71 00 00    	imul   $0x71cd,%eax,%eax
  401670:	89 44 24 e0          	mov    %eax,-0x20(%rsp)
  401674:	8b 44 24 dc          	mov    -0x24(%rsp),%eax
  401678:	69 c0 47 03 00 00    	imul   $0x347,%eax,%eax
  40167e:	89 44 24 dc          	mov    %eax,-0x24(%rsp)
  401682:	8b 44 24 e8          	mov    -0x18(%rsp),%eax
  401686:	69 c0 2a 26 00 00    	imul   $0x262a,%eax,%eax
  40168c:	89 44 24 e8          	mov    %eax,-0x18(%rsp)
  401690:	8b 44 24 e4          	mov    -0x1c(%rsp),%eax
  401694:	69 c0 f4 a9 00 00    	imul   $0xa9f4,%eax,%eax
  40169a:	89 44 24 e4          	mov    %eax,-0x1c(%rsp)
  40169e:	8b 44 24 d0          	mov    -0x30(%rsp),%eax
  4016a2:	69 c0 db 4d 00 00    	imul   $0x4ddb,%eax,%eax
  4016a8:	89 44 24 d0          	mov    %eax,-0x30(%rsp)
  4016ac:	8b 44 24 f4          	mov    -0xc(%rsp),%eax
  4016b0:	69 c0 31 6f 00 00    	imul   $0x6f31,%eax,%eax
  4016b6:	89 44 24 f4          	mov    %eax,-0xc(%rsp)
  4016ba:	8b 44 24 dc          	mov    -0x24(%rsp),%eax
  4016be:	69 c0 fb c7 00 00    	imul   $0xc7fb,%eax,%eax
  4016c4:	89 44 24 dc          	mov    %eax,-0x24(%rsp)
  4016c8:	8b 44 24 f0          	mov    -0x10(%rsp),%eax
  4016cc:	69 c0 85 95 00 00    	imul   $0x9585,%eax,%eax
  4016d2:	89 44 24 f0          	mov    %eax,-0x10(%rsp)
  4016d6:	8b 44 24 d8          	mov    -0x28(%rsp),%eax
  4016da:	69 c0 81 bb 00 00    	imul   $0xbb81,%eax,%eax
  4016e0:	89 44 24 d8          	mov    %eax,-0x28(%rsp)
  4016e4:	8b 44 24 e8          	mov    -0x18(%rsp),%eax
  4016e8:	69 c0 90 96 00 00    	imul   $0x9690,%eax,%eax
  4016ee:	89 44 24 e8          	mov    %eax,-0x18(%rsp)
  4016f2:	8b 44 24 f4          	mov    -0xc(%rsp),%eax
  4016f6:	69 c0 d8 94 00 00    	imul   $0x94d8,%eax,%eax
  4016fc:	89 44 24 f4          	mov    %eax,-0xc(%rsp)
  401700:	8b 44 24 f0          	mov    -0x10(%rsp),%eax
  401704:	69 c0 26 68 00 00    	imul   $0x6826,%eax,%eax
  40170a:	89 44 24 f0          	mov    %eax,-0x10(%rsp)
  40170e:	8b 44 24 d4          	mov    -0x2c(%rsp),%eax
  401712:	69 c0 67 45 00 00    	imul   $0x4567,%eax,%eax
  401718:	89 44 24 d4          	mov    %eax,-0x2c(%rsp)
  40171c:	ba 00 00 00 00       	mov    $0x0,%edx
  401721:	b8 00 00 00 00       	mov    $0x0,%eax
  401726:	eb 0b                	jmp    401733 <scramble+0x4b0>
  401728:	89 d1                	mov    %edx,%ecx
  40172a:	8b 4c 8c d0          	mov    -0x30(%rsp,%rcx,4),%ecx
  40172e:	01 c8                	add    %ecx,%eax
  401730:	83 c2 01             	add    $0x1,%edx
  401733:	83 fa 09             	cmp    $0x9,%edx
  401736:	76 f0                	jbe    401728 <scramble+0x4a5>
  401738:	f3 c3                	repz retq 

000000000040173a <getbuf>:
  40173a:	48 83 ec 18          	sub    $0x18,%rsp
  40173e:	48 89 e7             	mov    %rsp,%rdi
  401741:	e8 54 03 00 00       	callq  401a9a <Gets>
  401746:	b8 01 00 00 00       	mov    $0x1,%eax
  40174b:	48 83 c4 18          	add    $0x18,%rsp
  40174f:	c3                   	retq   

0000000000401750 <touch1>:
  401750:	48 83 ec 08          	sub    $0x8,%rsp
  401754:	c7 05 7e 3d 20 00 01 	movl   $0x1,0x203d7e(%rip)        # 6054dc <vlevel>
  40175b:	00 00 00 
  40175e:	bf c3 30 40 00       	mov    $0x4030c3,%edi
  401763:	e8 c8 f4 ff ff       	callq  400c30 <puts@plt>
  401768:	bf 01 00 00 00       	mov    $0x1,%edi
  40176d:	e8 17 05 00 00       	callq  401c89 <validate>
  401772:	bf 00 00 00 00       	mov    $0x0,%edi
  401777:	e8 44 f6 ff ff       	callq  400dc0 <exit@plt>

000000000040177c <touch2>:
  40177c:	48 83 ec 08          	sub    $0x8,%rsp
  401780:	89 fe                	mov    %edi,%esi
  401782:	c7 05 50 3d 20 00 02 	movl   $0x2,0x203d50(%rip)        # 6054dc <vlevel>
  401789:	00 00 00 
  40178c:	3b 3d 52 3d 20 00    	cmp    0x203d52(%rip),%edi        # 6054e4 <cookie>
  401792:	75 1b                	jne    4017af <touch2+0x33>
  401794:	bf e8 30 40 00       	mov    $0x4030e8,%edi
  401799:	b8 00 00 00 00       	mov    $0x0,%eax
  40179e:	e8 bd f4 ff ff       	callq  400c60 <printf@plt>
  4017a3:	bf 02 00 00 00       	mov    $0x2,%edi
  4017a8:	e8 dc 04 00 00       	callq  401c89 <validate>
  4017ad:	eb 19                	jmp    4017c8 <touch2+0x4c>
  4017af:	bf 10 31 40 00       	mov    $0x403110,%edi
  4017b4:	b8 00 00 00 00       	mov    $0x0,%eax
  4017b9:	e8 a2 f4 ff ff       	callq  400c60 <printf@plt>
  4017be:	bf 02 00 00 00       	mov    $0x2,%edi
  4017c3:	e8 73 05 00 00       	callq  401d3b <fail>
  4017c8:	bf 00 00 00 00       	mov    $0x0,%edi
  4017cd:	e8 ee f5 ff ff       	callq  400dc0 <exit@plt>

00000000004017d2 <hexmatch>:
  4017d2:	41 54                	push   %r12
  4017d4:	55                   	push   %rbp
  4017d5:	53                   	push   %rbx
  4017d6:	48 83 ec 70          	sub    $0x70,%rsp
  4017da:	41 89 fc             	mov    %edi,%r12d
  4017dd:	48 89 f5             	mov    %rsi,%rbp
  4017e0:	e8 3b f5 ff ff       	callq  400d20 <random@plt>
  4017e5:	48 89 c1             	mov    %rax,%rcx
  4017e8:	48 ba 0b d7 a3 70 3d 	movabs $0xa3d70a3d70a3d70b,%rdx
  4017ef:	0a d7 a3 
  4017f2:	48 f7 ea             	imul   %rdx
  4017f5:	48 8d 04 0a          	lea    (%rdx,%rcx,1),%rax
  4017f9:	48 c1 f8 06          	sar    $0x6,%rax
  4017fd:	48 89 ce             	mov    %rcx,%rsi
  401800:	48 c1 fe 3f          	sar    $0x3f,%rsi
  401804:	48 29 f0             	sub    %rsi,%rax
  401807:	48 8d 04 80          	lea    (%rax,%rax,4),%rax
  40180b:	48 8d 04 80          	lea    (%rax,%rax,4),%rax
  40180f:	48 c1 e0 02          	shl    $0x2,%rax
  401813:	48 29 c1             	sub    %rax,%rcx
  401816:	48 8d 1c 0c          	lea    (%rsp,%rcx,1),%rbx
  40181a:	44 89 e2             	mov    %r12d,%edx
  40181d:	be e0 30 40 00       	mov    $0x4030e0,%esi
  401822:	48 89 df             	mov    %rbx,%rdi
  401825:	b8 00 00 00 00       	mov    $0x0,%eax
  40182a:	e8 81 f5 ff ff       	callq  400db0 <sprintf@plt>
  40182f:	ba 09 00 00 00       	mov    $0x9,%edx
  401834:	48 89 de             	mov    %rbx,%rsi
  401837:	48 89 ef             	mov    %rbp,%rdi
  40183a:	e8 d1 f3 ff ff       	callq  400c10 <strncmp@plt>
  40183f:	85 c0                	test   %eax,%eax
  401841:	0f 94 c0             	sete   %al
  401844:	0f b6 c0             	movzbl %al,%eax
  401847:	48 83 c4 70          	add    $0x70,%rsp
  40184b:	5b                   	pop    %rbx
  40184c:	5d                   	pop    %rbp
  40184d:	41 5c                	pop    %r12
  40184f:	c3                   	retq   

0000000000401850 <touch3>:
  401850:	53                   	push   %rbx
  401851:	48 89 fb             	mov    %rdi,%rbx
  401854:	c7 05 7e 3c 20 00 03 	movl   $0x3,0x203c7e(%rip)        # 6054dc <vlevel>
  40185b:	00 00 00 
  40185e:	48 89 fe             	mov    %rdi,%rsi
  401861:	8b 3d 7d 3c 20 00    	mov    0x203c7d(%rip),%edi        # 6054e4 <cookie>
  401867:	e8 66 ff ff ff       	callq  4017d2 <hexmatch>
  40186c:	85 c0                	test   %eax,%eax
  40186e:	74 1e                	je     40188e <touch3+0x3e>
  401870:	48 89 de             	mov    %rbx,%rsi
  401873:	bf 38 31 40 00       	mov    $0x403138,%edi
  401878:	b8 00 00 00 00       	mov    $0x0,%eax
  40187d:	e8 de f3 ff ff       	callq  400c60 <printf@plt>
  401882:	bf 03 00 00 00       	mov    $0x3,%edi
  401887:	e8 fd 03 00 00       	callq  401c89 <validate>
  40188c:	eb 1c                	jmp    4018aa <touch3+0x5a>
  40188e:	48 89 de             	mov    %rbx,%rsi
  401891:	bf 60 31 40 00       	mov    $0x403160,%edi
  401896:	b8 00 00 00 00       	mov    $0x0,%eax
  40189b:	e8 c0 f3 ff ff       	callq  400c60 <printf@plt>
  4018a0:	bf 03 00 00 00       	mov    $0x3,%edi
  4018a5:	e8 91 04 00 00       	callq  401d3b <fail>
  4018aa:	bf 00 00 00 00       	mov    $0x0,%edi
  4018af:	e8 0c f5 ff ff       	callq  400dc0 <exit@plt>

00000000004018b4 <test>:
  4018b4:	48 83 ec 08          	sub    $0x8,%rsp
  4018b8:	b8 00 00 00 00       	mov    $0x0,%eax
  4018bd:	e8 78 fe ff ff       	callq  40173a <getbuf>
  4018c2:	89 c6                	mov    %eax,%esi
  4018c4:	bf 88 31 40 00       	mov    $0x403188,%edi
  4018c9:	b8 00 00 00 00       	mov    $0x0,%eax
  4018ce:	e8 8d f3 ff ff       	callq  400c60 <printf@plt>
  4018d3:	48 83 c4 08          	add    $0x8,%rsp
  4018d7:	c3                   	retq   

00000000004018d8 <start_farm>:
  4018d8:	b8 01 00 00 00       	mov    $0x1,%eax
  4018dd:	c3                   	retq   

00000000004018de <getval_232>:
  4018de:	b8 c6 a1 58 90       	mov    $0x9058a1c6,%eax
  4018e3:	c3                   	retq   

00000000004018e4 <getval_182>:
  4018e4:	b8 58 90 90 c3       	mov    $0xc3909058,%eax
  4018e9:	c3                   	retq   

00000000004018ea <getval_274>:
  4018ea:	b8 78 48 89 c7       	mov    $0xc7894878,%eax
  4018ef:	c3                   	retq   

00000000004018f0 <addval_377>:
  4018f0:	8d 87 48 89 c7 c2    	lea    -0x3d3876b8(%rdi),%eax
  4018f6:	c3                   	retq   

00000000004018f7 <getval_136>:
  4018f7:	b8 1e 25 d6 48       	mov    $0x48d6251e,%eax
  4018fc:	c3                   	retq   

00000000004018fd <getval_124>:
  4018fd:	b8 50 90 90 c3       	mov    $0xc3909050,%eax
  401902:	c3                   	retq   

0000000000401903 <getval_383>:
  401903:	b8 08 89 c7 90       	mov    $0x90c78908,%eax
  401908:	c3                   	retq   

0000000000401909 <getval_245>:
  401909:	b8 3b 48 89 c7       	mov    $0xc789483b,%eax
  40190e:	c3                   	retq   

000000000040190f <mid_farm>:
  40190f:	b8 01 00 00 00       	mov    $0x1,%eax
  401914:	c3                   	retq   

0000000000401915 <add_xy>:
  401915:	48 8d 04 37          	lea    (%rdi,%rsi,1),%rax
  401919:	c3                   	retq   

000000000040191a <getval_367>:
  40191a:	b8 48 89 e0 90       	mov    $0x90e08948,%eax
  40191f:	c3                   	retq   

0000000000401920 <setval_138>:
  401920:	c7 07 89 d1 18 d2    	movl   $0xd218d189,(%rdi)
  401926:	c3                   	retq   

0000000000401927 <addval_276>:
  401927:	8d 87 89 d1 48 c0    	lea    -0x3fb72e77(%rdi),%eax
  40192d:	c3                   	retq   

000000000040192e <addval_345>:
  40192e:	8d 87 89 d1 30 c9    	lea    -0x36cf2e77(%rdi),%eax
  401934:	c3                   	retq   

0000000000401935 <addval_252>:
  401935:	8d 87 8b d1 84 c9    	lea    -0x367b2e75(%rdi),%eax
  40193b:	c3                   	retq   

000000000040193c <getval_168>:
  40193c:	b8 8b ce 38 d2       	mov    $0xd238ce8b,%eax
  401941:	c3                   	retq   

0000000000401942 <setval_297>:
  401942:	c7 07 89 c2 94 90    	movl   $0x9094c289,(%rdi)
  401948:	c3                   	retq   

0000000000401949 <addval_401>:
  401949:	8d 87 89 ce 84 d2    	lea    -0x2d7b3177(%rdi),%eax
  40194f:	c3                   	retq   

0000000000401950 <setval_371>:
  401950:	c7 07 89 c2 c7 c3    	movl   $0xc3c7c289,(%rdi)
  401956:	c3                   	retq   

0000000000401957 <setval_199>:
  401957:	c7 07 48 89 e0 c7    	movl   $0xc7e08948,(%rdi)
  40195d:	c3                   	retq   

000000000040195e <setval_315>:
  40195e:	c7 07 8b ce 08 c9    	movl   $0xc908ce8b,(%rdi)
  401964:	c3                   	retq   

0000000000401965 <setval_449>:
  401965:	c7 07 89 c2 c1 c9    	movl   $0xc9c1c289,(%rdi)
  40196b:	c3                   	retq   

000000000040196c <setval_351>:
  40196c:	c7 07 89 ce 90 c3    	movl   $0xc390ce89,(%rdi)
  401972:	c3                   	retq   

0000000000401973 <addval_107>:
  401973:	8d 87 48 89 e0 94    	lea    -0x6b1f76b8(%rdi),%eax
  401979:	c3                   	retq   

000000000040197a <getval_220>:
  40197a:	b8 c9 d1 38 db       	mov    $0xdb38d1c9,%eax
  40197f:	c3                   	retq   

0000000000401980 <addval_434>:
  401980:	8d 87 89 c2 a4 c9    	lea    -0x365b3d77(%rdi),%eax
  401986:	c3                   	retq   

0000000000401987 <getval_319>:
  401987:	b8 4a 48 89 e0       	mov    $0xe089484a,%eax
  40198c:	c3                   	retq   

000000000040198d <setval_215>:
  40198d:	c7 07 89 d1 84 db    	movl   $0xdb84d189,(%rdi)
  401993:	c3                   	retq   

0000000000401994 <addval_161>:
  401994:	8d 87 48 99 e0 c3    	lea    -0x3c1f66b8(%rdi),%eax
  40199a:	c3                   	retq   

000000000040199b <addval_147>:
  40199b:	8d 87 89 c2 28 db    	lea    -0x24d73d77(%rdi),%eax
  4019a1:	c3                   	retq   

00000000004019a2 <getval_328>:
  4019a2:	b8 8d ce 90 c3       	mov    $0xc390ce8d,%eax
  4019a7:	c3                   	retq   

00000000004019a8 <getval_430>:
  4019a8:	b8 68 89 e0 90       	mov    $0x90e08968,%eax
  4019ad:	c3                   	retq   

00000000004019ae <getval_157>:
  4019ae:	b8 89 c2 84 c9       	mov    $0xc984c289,%eax
  4019b3:	c3                   	retq   

00000000004019b4 <addval_121>:
  4019b4:	8d 87 89 d1 08 db    	lea    -0x24f72e77(%rdi),%eax
  4019ba:	c3                   	retq   

00000000004019bb <addval_334>:
  4019bb:	8d 87 48 c9 e0 c3    	lea    -0x3c1f36b8(%rdi),%eax
  4019c1:	c3                   	retq   

00000000004019c2 <setval_135>:
  4019c2:	c7 07 7d 89 ce c2    	movl   $0xc2ce897d,(%rdi)
  4019c8:	c3                   	retq   

00000000004019c9 <setval_283>:
  4019c9:	c7 07 89 c2 94 c0    	movl   $0xc094c289,(%rdi)
  4019cf:	c3                   	retq   

00000000004019d0 <addval_197>:
  4019d0:	8d 87 df 8d ce 90    	lea    -0x6f317221(%rdi),%eax
  4019d6:	c3                   	retq   

00000000004019d7 <getval_204>:
  4019d7:	b8 89 d1 c4 d2       	mov    $0xd2c4d189,%eax
  4019dc:	c3                   	retq   

00000000004019dd <setval_193>:
  4019dd:	c7 07 89 c2 84 d2    	movl   $0xd284c289,(%rdi)
  4019e3:	c3                   	retq   

00000000004019e4 <getval_480>:
  4019e4:	b8 48 89 e0 c7       	mov    $0xc7e08948,%eax
  4019e9:	c3                   	retq   

00000000004019ea <setval_290>:
  4019ea:	c7 07 8b ce 20 d2    	movl   $0xd220ce8b,(%rdi)
  4019f0:	c3                   	retq   

00000000004019f1 <end_farm>:
  4019f1:	b8 01 00 00 00       	mov    $0x1,%eax
  4019f6:	c3                   	retq   
  4019f7:	66 0f 1f 84 00 00 00 	nopw   0x0(%rax,%rax,1)
  4019fe:	00 00 

0000000000401a00 <save_char>:
  401a00:	8b 05 fe 46 20 00    	mov    0x2046fe(%rip),%eax        # 606104 <gets_cnt>
  401a06:	3d ff 03 00 00       	cmp    $0x3ff,%eax
  401a0b:	7f 49                	jg     401a56 <save_char+0x56>
  401a0d:	8d 14 40             	lea    (%rax,%rax,2),%edx
  401a10:	89 f9                	mov    %edi,%ecx
  401a12:	c0 e9 04             	shr    $0x4,%cl
  401a15:	83 e1 0f             	and    $0xf,%ecx
  401a18:	0f b6 b1 b0 34 40 00 	movzbl 0x4034b0(%rcx),%esi
  401a1f:	48 63 ca             	movslq %edx,%rcx
  401a22:	40 88 b1 00 55 60 00 	mov    %sil,0x605500(%rcx)
  401a29:	8d 4a 01             	lea    0x1(%rdx),%ecx
  401a2c:	83 e7 0f             	and    $0xf,%edi
  401a2f:	0f b6 b7 b0 34 40 00 	movzbl 0x4034b0(%rdi),%esi
  401a36:	48 63 c9             	movslq %ecx,%rcx
  401a39:	40 88 b1 00 55 60 00 	mov    %sil,0x605500(%rcx)
  401a40:	83 c2 02             	add    $0x2,%edx
  401a43:	48 63 d2             	movslq %edx,%rdx
  401a46:	c6 82 00 55 60 00 20 	movb   $0x20,0x605500(%rdx)
  401a4d:	83 c0 01             	add    $0x1,%eax
  401a50:	89 05 ae 46 20 00    	mov    %eax,0x2046ae(%rip)        # 606104 <gets_cnt>
  401a56:	f3 c3                	repz retq 

0000000000401a58 <save_term>:
  401a58:	8b 05 a6 46 20 00    	mov    0x2046a6(%rip),%eax        # 606104 <gets_cnt>
  401a5e:	8d 04 40             	lea    (%rax,%rax,2),%eax
  401a61:	48 98                	cltq   
  401a63:	c6 80 00 55 60 00 00 	movb   $0x0,0x605500(%rax)
  401a6a:	c3                   	retq   

0000000000401a6b <check_fail>:
  401a6b:	48 83 ec 08          	sub    $0x8,%rsp
  401a6f:	0f be 35 92 46 20 00 	movsbl 0x204692(%rip),%esi        # 606108 <target_prefix>
  401a76:	b9 00 55 60 00       	mov    $0x605500,%ecx
  401a7b:	8b 15 57 3a 20 00    	mov    0x203a57(%rip),%edx        # 6054d8 <check_level>
  401a81:	bf ab 31 40 00       	mov    $0x4031ab,%edi
  401a86:	b8 00 00 00 00       	mov    $0x0,%eax
  401a8b:	e8 d0 f1 ff ff       	callq  400c60 <printf@plt>
  401a90:	bf 01 00 00 00       	mov    $0x1,%edi
  401a95:	e8 26 f3 ff ff       	callq  400dc0 <exit@plt>

0000000000401a9a <Gets>:
  401a9a:	41 54                	push   %r12
  401a9c:	55                   	push   %rbp
  401a9d:	53                   	push   %rbx
  401a9e:	49 89 fc             	mov    %rdi,%r12
  401aa1:	c7 05 59 46 20 00 00 	movl   $0x0,0x204659(%rip)        # 606104 <gets_cnt>
  401aa8:	00 00 00 
  401aab:	48 89 fb             	mov    %rdi,%rbx
  401aae:	eb 11                	jmp    401ac1 <Gets+0x27>
  401ab0:	48 8d 6b 01          	lea    0x1(%rbx),%rbp
  401ab4:	88 03                	mov    %al,(%rbx)
  401ab6:	0f b6 f8             	movzbl %al,%edi
  401ab9:	e8 42 ff ff ff       	callq  401a00 <save_char>
  401abe:	48 89 eb             	mov    %rbp,%rbx
  401ac1:	48 8b 3d 08 3a 20 00 	mov    0x203a08(%rip),%rdi        # 6054d0 <infile>
  401ac8:	e8 63 f2 ff ff       	callq  400d30 <_IO_getc@plt>
  401acd:	83 f8 ff             	cmp    $0xffffffff,%eax
  401ad0:	74 05                	je     401ad7 <Gets+0x3d>
  401ad2:	83 f8 0a             	cmp    $0xa,%eax
  401ad5:	75 d9                	jne    401ab0 <Gets+0x16>
  401ad7:	c6 03 00             	movb   $0x0,(%rbx)
  401ada:	b8 00 00 00 00       	mov    $0x0,%eax
  401adf:	e8 74 ff ff ff       	callq  401a58 <save_term>
  401ae4:	4c 89 e0             	mov    %r12,%rax
  401ae7:	5b                   	pop    %rbx
  401ae8:	5d                   	pop    %rbp
  401ae9:	41 5c                	pop    %r12
  401aeb:	c3                   	retq   

0000000000401aec <notify_server>:
  401aec:	83 3d f5 39 20 00 00 	cmpl   $0x0,0x2039f5(%rip)        # 6054e8 <is_checker>
  401af3:	0f 85 8e 01 00 00    	jne    401c87 <notify_server+0x19b>
  401af9:	53                   	push   %rbx
  401afa:	48 81 ec 10 40 00 00 	sub    $0x4010,%rsp
  401b01:	89 fb                	mov    %edi,%ebx
  401b03:	8b 05 fb 45 20 00    	mov    0x2045fb(%rip),%eax        # 606104 <gets_cnt>
  401b09:	83 c0 64             	add    $0x64,%eax
  401b0c:	3d 00 20 00 00       	cmp    $0x2000,%eax
  401b11:	7e 19                	jle    401b2c <notify_server+0x40>
  401b13:	bf e0 32 40 00       	mov    $0x4032e0,%edi
  401b18:	b8 00 00 00 00       	mov    $0x0,%eax
  401b1d:	e8 3e f1 ff ff       	callq  400c60 <printf@plt>
  401b22:	bf 01 00 00 00       	mov    $0x1,%edi
  401b27:	e8 94 f2 ff ff       	callq  400dc0 <exit@plt>
  401b2c:	44 0f be 0d d4 45 20 	movsbl 0x2045d4(%rip),%r9d        # 606108 <target_prefix>
  401b33:	00 
  401b34:	83 3d 4d 39 20 00 00 	cmpl   $0x0,0x20394d(%rip)        # 605488 <notify>
  401b3b:	74 09                	je     401b46 <notify_server+0x5a>
  401b3d:	44 8b 05 9c 39 20 00 	mov    0x20399c(%rip),%r8d        # 6054e0 <authkey>
  401b44:	eb 06                	jmp    401b4c <notify_server+0x60>
  401b46:	41 b8 ff ff ff ff    	mov    $0xffffffff,%r8d
  401b4c:	85 db                	test   %ebx,%ebx
  401b4e:	74 07                	je     401b57 <notify_server+0x6b>
  401b50:	b9 c1 31 40 00       	mov    $0x4031c1,%ecx
  401b55:	eb 05                	jmp    401b5c <notify_server+0x70>
  401b57:	b9 c6 31 40 00       	mov    $0x4031c6,%ecx
  401b5c:	48 c7 44 24 08 00 55 	movq   $0x605500,0x8(%rsp)
  401b63:	60 00 
  401b65:	89 34 24             	mov    %esi,(%rsp)
  401b68:	8b 15 da 35 20 00    	mov    0x2035da(%rip),%edx        # 605148 <target_id>
  401b6e:	be cb 31 40 00       	mov    $0x4031cb,%esi
  401b73:	48 8d bc 24 10 20 00 	lea    0x2010(%rsp),%rdi
  401b7a:	00 
  401b7b:	b8 00 00 00 00       	mov    $0x0,%eax
  401b80:	e8 2b f2 ff ff       	callq  400db0 <sprintf@plt>
  401b85:	83 3d fc 38 20 00 00 	cmpl   $0x0,0x2038fc(%rip)        # 605488 <notify>
  401b8c:	74 78                	je     401c06 <notify_server+0x11a>
  401b8e:	85 db                	test   %ebx,%ebx
  401b90:	74 68                	je     401bfa <notify_server+0x10e>
  401b92:	4c 8d 4c 24 10       	lea    0x10(%rsp),%r9
  401b97:	41 b8 00 00 00 00    	mov    $0x0,%r8d
  401b9d:	48 8d 8c 24 10 20 00 	lea    0x2010(%rsp),%rcx
  401ba4:	00 
  401ba5:	48 8b 15 a4 35 20 00 	mov    0x2035a4(%rip),%rdx        # 605150 <lab>
  401bac:	48 8b 35 a5 35 20 00 	mov    0x2035a5(%rip),%rsi        # 605158 <course>
  401bb3:	48 8b 3d 86 35 20 00 	mov    0x203586(%rip),%rdi        # 605140 <user_id>
  401bba:	e8 94 0f 00 00       	callq  402b53 <driver_post>
  401bbf:	85 c0                	test   %eax,%eax
  401bc1:	79 1e                	jns    401be1 <notify_server+0xf5>
  401bc3:	48 8d 74 24 10       	lea    0x10(%rsp),%rsi
  401bc8:	bf e7 31 40 00       	mov    $0x4031e7,%edi
  401bcd:	b8 00 00 00 00       	mov    $0x0,%eax
  401bd2:	e8 89 f0 ff ff       	callq  400c60 <printf@plt>
  401bd7:	bf 01 00 00 00       	mov    $0x1,%edi
  401bdc:	e8 df f1 ff ff       	callq  400dc0 <exit@plt>
  401be1:	bf 10 33 40 00       	mov    $0x403310,%edi
  401be6:	e8 45 f0 ff ff       	callq  400c30 <puts@plt>
  401beb:	bf f3 31 40 00       	mov    $0x4031f3,%edi
  401bf0:	e8 3b f0 ff ff       	callq  400c30 <puts@plt>
  401bf5:	e9 85 00 00 00       	jmpq   401c7f <notify_server+0x193>
  401bfa:	bf fd 31 40 00       	mov    $0x4031fd,%edi
  401bff:	e8 2c f0 ff ff       	callq  400c30 <puts@plt>
  401c04:	eb 79                	jmp    401c7f <notify_server+0x193>
  401c06:	85 db                	test   %ebx,%ebx
  401c08:	74 08                	je     401c12 <notify_server+0x126>
  401c0a:	be c1 31 40 00       	mov    $0x4031c1,%esi
  401c0f:	90                   	nop
  401c10:	eb 05                	jmp    401c17 <notify_server+0x12b>
  401c12:	be c6 31 40 00       	mov    $0x4031c6,%esi
  401c17:	bf 48 33 40 00       	mov    $0x403348,%edi
  401c1c:	b8 00 00 00 00       	mov    $0x0,%eax
  401c21:	e8 3a f0 ff ff       	callq  400c60 <printf@plt>
  401c26:	48 8b 35 13 35 20 00 	mov    0x203513(%rip),%rsi        # 605140 <user_id>
  401c2d:	bf 04 32 40 00       	mov    $0x403204,%edi
  401c32:	b8 00 00 00 00       	mov    $0x0,%eax
  401c37:	e8 24 f0 ff ff       	callq  400c60 <printf@plt>
  401c3c:	48 8b 35 15 35 20 00 	mov    0x203515(%rip),%rsi        # 605158 <course>
  401c43:	bf 11 32 40 00       	mov    $0x403211,%edi
  401c48:	b8 00 00 00 00       	mov    $0x0,%eax
  401c4d:	e8 0e f0 ff ff       	callq  400c60 <printf@plt>
  401c52:	48 8b 35 f7 34 20 00 	mov    0x2034f7(%rip),%rsi        # 605150 <lab>
  401c59:	bf 1d 32 40 00       	mov    $0x40321d,%edi
  401c5e:	b8 00 00 00 00       	mov    $0x0,%eax
  401c63:	e8 f8 ef ff ff       	callq  400c60 <printf@plt>
  401c68:	48 8d b4 24 10 20 00 	lea    0x2010(%rsp),%rsi
  401c6f:	00 
  401c70:	bf 26 32 40 00       	mov    $0x403226,%edi
  401c75:	b8 00 00 00 00       	mov    $0x0,%eax
  401c7a:	e8 e1 ef ff ff       	callq  400c60 <printf@plt>
  401c7f:	48 81 c4 10 40 00 00 	add    $0x4010,%rsp
  401c86:	5b                   	pop    %rbx
  401c87:	f3 c3                	repz retq 

0000000000401c89 <validate>:
  401c89:	53                   	push   %rbx
  401c8a:	89 fb                	mov    %edi,%ebx
  401c8c:	83 3d 55 38 20 00 00 	cmpl   $0x0,0x203855(%rip)        # 6054e8 <is_checker>
  401c93:	74 60                	je     401cf5 <validate+0x6c>
  401c95:	39 3d 41 38 20 00    	cmp    %edi,0x203841(%rip)        # 6054dc <vlevel>
  401c9b:	74 14                	je     401cb1 <validate+0x28>
  401c9d:	bf 32 32 40 00       	mov    $0x403232,%edi
  401ca2:	e8 89 ef ff ff       	callq  400c30 <puts@plt>
  401ca7:	b8 00 00 00 00       	mov    $0x0,%eax
  401cac:	e8 ba fd ff ff       	callq  401a6b <check_fail>
  401cb1:	8b 35 21 38 20 00    	mov    0x203821(%rip),%esi        # 6054d8 <check_level>
  401cb7:	39 fe                	cmp    %edi,%esi
  401cb9:	74 1b                	je     401cd6 <validate+0x4d>
  401cbb:	89 fa                	mov    %edi,%edx
  401cbd:	bf 70 33 40 00       	mov    $0x403370,%edi
  401cc2:	b8 00 00 00 00       	mov    $0x0,%eax
  401cc7:	e8 94 ef ff ff       	callq  400c60 <printf@plt>
  401ccc:	b8 00 00 00 00       	mov    $0x0,%eax
  401cd1:	e8 95 fd ff ff       	callq  401a6b <check_fail>
  401cd6:	0f be 35 2b 44 20 00 	movsbl 0x20442b(%rip),%esi        # 606108 <target_prefix>
  401cdd:	b9 00 55 60 00       	mov    $0x605500,%ecx
  401ce2:	89 fa                	mov    %edi,%edx
  401ce4:	bf 50 32 40 00       	mov    $0x403250,%edi
  401ce9:	b8 00 00 00 00       	mov    $0x0,%eax
  401cee:	e8 6d ef ff ff       	callq  400c60 <printf@plt>
  401cf3:	eb 44                	jmp    401d39 <validate+0xb0>
  401cf5:	39 3d e1 37 20 00    	cmp    %edi,0x2037e1(%rip)        # 6054dc <vlevel>
  401cfb:	74 18                	je     401d15 <validate+0x8c>
  401cfd:	bf 32 32 40 00       	mov    $0x403232,%edi
  401d02:	e8 29 ef ff ff       	callq  400c30 <puts@plt>
  401d07:	89 de                	mov    %ebx,%esi
  401d09:	bf 00 00 00 00       	mov    $0x0,%edi
  401d0e:	e8 d9 fd ff ff       	callq  401aec <notify_server>
  401d13:	eb 24                	jmp    401d39 <validate+0xb0>
  401d15:	0f be 15 ec 43 20 00 	movsbl 0x2043ec(%rip),%edx        # 606108 <target_prefix>
  401d1c:	89 fe                	mov    %edi,%esi
  401d1e:	bf 98 33 40 00       	mov    $0x403398,%edi
  401d23:	b8 00 00 00 00       	mov    $0x0,%eax
  401d28:	e8 33 ef ff ff       	callq  400c60 <printf@plt>
  401d2d:	89 de                	mov    %ebx,%esi
  401d2f:	bf 01 00 00 00       	mov    $0x1,%edi
  401d34:	e8 b3 fd ff ff       	callq  401aec <notify_server>
  401d39:	5b                   	pop    %rbx
  401d3a:	c3                   	retq   

0000000000401d3b <fail>:
  401d3b:	48 83 ec 08          	sub    $0x8,%rsp
  401d3f:	83 3d a2 37 20 00 00 	cmpl   $0x0,0x2037a2(%rip)        # 6054e8 <is_checker>
  401d46:	74 0a                	je     401d52 <fail+0x17>
  401d48:	b8 00 00 00 00       	mov    $0x0,%eax
  401d4d:	e8 19 fd ff ff       	callq  401a6b <check_fail>
  401d52:	89 fe                	mov    %edi,%esi
  401d54:	bf 00 00 00 00       	mov    $0x0,%edi
  401d59:	e8 8e fd ff ff       	callq  401aec <notify_server>
  401d5e:	48 83 c4 08          	add    $0x8,%rsp
  401d62:	c3                   	retq   

0000000000401d63 <bushandler>:
  401d63:	48 83 ec 08          	sub    $0x8,%rsp
  401d67:	83 3d 7a 37 20 00 00 	cmpl   $0x0,0x20377a(%rip)        # 6054e8 <is_checker>
  401d6e:	74 14                	je     401d84 <bushandler+0x21>
  401d70:	bf 65 32 40 00       	mov    $0x403265,%edi
  401d75:	e8 b6 ee ff ff       	callq  400c30 <puts@plt>
  401d7a:	b8 00 00 00 00       	mov    $0x0,%eax
  401d7f:	e8 e7 fc ff ff       	callq  401a6b <check_fail>
  401d84:	bf d0 33 40 00       	mov    $0x4033d0,%edi
  401d89:	e8 a2 ee ff ff       	callq  400c30 <puts@plt>
  401d8e:	bf 6f 32 40 00       	mov    $0x40326f,%edi
  401d93:	e8 98 ee ff ff       	callq  400c30 <puts@plt>
  401d98:	be 00 00 00 00       	mov    $0x0,%esi
  401d9d:	bf 00 00 00 00       	mov    $0x0,%edi
  401da2:	e8 45 fd ff ff       	callq  401aec <notify_server>
  401da7:	bf 01 00 00 00       	mov    $0x1,%edi
  401dac:	e8 0f f0 ff ff       	callq  400dc0 <exit@plt>

0000000000401db1 <seghandler>:
  401db1:	48 83 ec 08          	sub    $0x8,%rsp
  401db5:	83 3d 2c 37 20 00 00 	cmpl   $0x0,0x20372c(%rip)        # 6054e8 <is_checker>
  401dbc:	74 14                	je     401dd2 <seghandler+0x21>
  401dbe:	bf 85 32 40 00       	mov    $0x403285,%edi
  401dc3:	e8 68 ee ff ff       	callq  400c30 <puts@plt>
  401dc8:	b8 00 00 00 00       	mov    $0x0,%eax
  401dcd:	e8 99 fc ff ff       	callq  401a6b <check_fail>
  401dd2:	bf f0 33 40 00       	mov    $0x4033f0,%edi
  401dd7:	e8 54 ee ff ff       	callq  400c30 <puts@plt>
  401ddc:	bf 6f 32 40 00       	mov    $0x40326f,%edi
  401de1:	e8 4a ee ff ff       	callq  400c30 <puts@plt>
  401de6:	be 00 00 00 00       	mov    $0x0,%esi
  401deb:	bf 00 00 00 00       	mov    $0x0,%edi
  401df0:	e8 f7 fc ff ff       	callq  401aec <notify_server>
  401df5:	bf 01 00 00 00       	mov    $0x1,%edi
  401dfa:	e8 c1 ef ff ff       	callq  400dc0 <exit@plt>

0000000000401dff <illegalhandler>:
  401dff:	48 83 ec 08          	sub    $0x8,%rsp
  401e03:	83 3d de 36 20 00 00 	cmpl   $0x0,0x2036de(%rip)        # 6054e8 <is_checker>
  401e0a:	74 14                	je     401e20 <illegalhandler+0x21>
  401e0c:	bf 98 32 40 00       	mov    $0x403298,%edi
  401e11:	e8 1a ee ff ff       	callq  400c30 <puts@plt>
  401e16:	b8 00 00 00 00       	mov    $0x0,%eax
  401e1b:	e8 4b fc ff ff       	callq  401a6b <check_fail>
  401e20:	bf 18 34 40 00       	mov    $0x403418,%edi
  401e25:	e8 06 ee ff ff       	callq  400c30 <puts@plt>
  401e2a:	bf 6f 32 40 00       	mov    $0x40326f,%edi
  401e2f:	e8 fc ed ff ff       	callq  400c30 <puts@plt>
  401e34:	be 00 00 00 00       	mov    $0x0,%esi
  401e39:	bf 00 00 00 00       	mov    $0x0,%edi
  401e3e:	e8 a9 fc ff ff       	callq  401aec <notify_server>
  401e43:	bf 01 00 00 00       	mov    $0x1,%edi
  401e48:	e8 73 ef ff ff       	callq  400dc0 <exit@plt>

0000000000401e4d <sigalrmhandler>:
  401e4d:	48 83 ec 08          	sub    $0x8,%rsp
  401e51:	83 3d 90 36 20 00 00 	cmpl   $0x0,0x203690(%rip)        # 6054e8 <is_checker>
  401e58:	74 14                	je     401e6e <sigalrmhandler+0x21>
  401e5a:	bf ac 32 40 00       	mov    $0x4032ac,%edi
  401e5f:	e8 cc ed ff ff       	callq  400c30 <puts@plt>
  401e64:	b8 00 00 00 00       	mov    $0x0,%eax
  401e69:	e8 fd fb ff ff       	callq  401a6b <check_fail>
  401e6e:	be 05 00 00 00       	mov    $0x5,%esi
  401e73:	bf 48 34 40 00       	mov    $0x403448,%edi
  401e78:	b8 00 00 00 00       	mov    $0x0,%eax
  401e7d:	e8 de ed ff ff       	callq  400c60 <printf@plt>
  401e82:	be 00 00 00 00       	mov    $0x0,%esi
  401e87:	bf 00 00 00 00       	mov    $0x0,%edi
  401e8c:	e8 5b fc ff ff       	callq  401aec <notify_server>
  401e91:	bf 01 00 00 00       	mov    $0x1,%edi
  401e96:	e8 25 ef ff ff       	callq  400dc0 <exit@plt>

0000000000401e9b <launch>:
  401e9b:	55                   	push   %rbp
  401e9c:	48 89 e5             	mov    %rsp,%rbp
  401e9f:	48 89 fa             	mov    %rdi,%rdx
  401ea2:	48 8d 47 1e          	lea    0x1e(%rdi),%rax
  401ea6:	48 83 e0 f0          	and    $0xfffffffffffffff0,%rax
  401eaa:	48 29 c4             	sub    %rax,%rsp
  401ead:	48 8d 7c 24 0f       	lea    0xf(%rsp),%rdi
  401eb2:	48 83 e7 f0          	and    $0xfffffffffffffff0,%rdi
  401eb6:	be f4 00 00 00       	mov    $0xf4,%esi
  401ebb:	e8 b0 ed ff ff       	callq  400c70 <memset@plt>
  401ec0:	48 8b 05 d9 35 20 00 	mov    0x2035d9(%rip),%rax        # 6054a0 <stdin@@GLIBC_2.2.5>
  401ec7:	48 39 05 02 36 20 00 	cmp    %rax,0x203602(%rip)        # 6054d0 <infile>
  401ece:	75 0f                	jne    401edf <launch+0x44>
  401ed0:	bf b4 32 40 00       	mov    $0x4032b4,%edi
  401ed5:	b8 00 00 00 00       	mov    $0x0,%eax
  401eda:	e8 81 ed ff ff       	callq  400c60 <printf@plt>
  401edf:	c7 05 f3 35 20 00 00 	movl   $0x0,0x2035f3(%rip)        # 6054dc <vlevel>
  401ee6:	00 00 00 
  401ee9:	b8 00 00 00 00       	mov    $0x0,%eax
  401eee:	e8 c1 f9 ff ff       	callq  4018b4 <test>
  401ef3:	83 3d ee 35 20 00 00 	cmpl   $0x0,0x2035ee(%rip)        # 6054e8 <is_checker>
  401efa:	74 14                	je     401f10 <launch+0x75>
  401efc:	bf c1 32 40 00       	mov    $0x4032c1,%edi
  401f01:	e8 2a ed ff ff       	callq  400c30 <puts@plt>
  401f06:	b8 00 00 00 00       	mov    $0x0,%eax
  401f0b:	e8 5b fb ff ff       	callq  401a6b <check_fail>
  401f10:	bf cc 32 40 00       	mov    $0x4032cc,%edi
  401f15:	e8 16 ed ff ff       	callq  400c30 <puts@plt>
  401f1a:	c9                   	leaveq 
  401f1b:	c3                   	retq   

0000000000401f1c <stable_launch>:
  401f1c:	53                   	push   %rbx
  401f1d:	48 89 3d a4 35 20 00 	mov    %rdi,0x2035a4(%rip)        # 6054c8 <global_offset>
  401f24:	41 b9 00 00 00 00    	mov    $0x0,%r9d
  401f2a:	41 b8 00 00 00 00    	mov    $0x0,%r8d
  401f30:	b9 32 01 00 00       	mov    $0x132,%ecx
  401f35:	ba 07 00 00 00       	mov    $0x7,%edx
  401f3a:	be 00 00 10 00       	mov    $0x100000,%esi
  401f3f:	bf 00 60 58 55       	mov    $0x55586000,%edi
  401f44:	e8 07 ed ff ff       	callq  400c50 <mmap@plt>
  401f49:	48 89 c3             	mov    %rax,%rbx
  401f4c:	48 3d 00 60 58 55    	cmp    $0x55586000,%rax
  401f52:	74 32                	je     401f86 <stable_launch+0x6a>
  401f54:	be 00 00 10 00       	mov    $0x100000,%esi
  401f59:	48 89 c7             	mov    %rax,%rdi
  401f5c:	e8 ef ed ff ff       	callq  400d50 <munmap@plt>
  401f61:	ba 00 60 58 55       	mov    $0x55586000,%edx
  401f66:	be 80 34 40 00       	mov    $0x403480,%esi
  401f6b:	48 8b 3d 3e 35 20 00 	mov    0x20353e(%rip),%rdi        # 6054b0 <stderr@@GLIBC_2.2.5>
  401f72:	b8 00 00 00 00       	mov    $0x0,%eax
  401f77:	e8 64 ed ff ff       	callq  400ce0 <fprintf@plt>
  401f7c:	bf 01 00 00 00       	mov    $0x1,%edi
  401f81:	e8 3a ee ff ff       	callq  400dc0 <exit@plt>
  401f86:	48 8d 90 f8 ff 0f 00 	lea    0xffff8(%rax),%rdx
  401f8d:	48 89 15 7c 41 20 00 	mov    %rdx,0x20417c(%rip)        # 606110 <stack_top>
  401f94:	48 89 e0             	mov    %rsp,%rax
  401f97:	48 89 d4             	mov    %rdx,%rsp
  401f9a:	48 89 c2             	mov    %rax,%rdx
  401f9d:	48 89 15 1c 35 20 00 	mov    %rdx,0x20351c(%rip)        # 6054c0 <global_save_stack>
  401fa4:	48 8b 3d 1d 35 20 00 	mov    0x20351d(%rip),%rdi        # 6054c8 <global_offset>
  401fab:	e8 eb fe ff ff       	callq  401e9b <launch>
  401fb0:	48 8b 05 09 35 20 00 	mov    0x203509(%rip),%rax        # 6054c0 <global_save_stack>
  401fb7:	48 89 c4             	mov    %rax,%rsp
  401fba:	be 00 00 10 00       	mov    $0x100000,%esi
  401fbf:	48 89 df             	mov    %rbx,%rdi
  401fc2:	e8 89 ed ff ff       	callq  400d50 <munmap@plt>
  401fc7:	5b                   	pop    %rbx
  401fc8:	c3                   	retq   
  401fc9:	0f 1f 80 00 00 00 00 	nopl   0x0(%rax)

0000000000401fd0 <rio_readinitb>:
  401fd0:	89 37                	mov    %esi,(%rdi)
  401fd2:	c7 47 04 00 00 00 00 	movl   $0x0,0x4(%rdi)
  401fd9:	48 8d 47 10          	lea    0x10(%rdi),%rax
  401fdd:	48 89 47 08          	mov    %rax,0x8(%rdi)
  401fe1:	c3                   	retq   

0000000000401fe2 <sigalrm_handler>:
  401fe2:	48 83 ec 08          	sub    $0x8,%rsp
  401fe6:	ba 00 00 00 00       	mov    $0x0,%edx
  401feb:	be c0 34 40 00       	mov    $0x4034c0,%esi
  401ff0:	48 8b 3d b9 34 20 00 	mov    0x2034b9(%rip),%rdi        # 6054b0 <stderr@@GLIBC_2.2.5>
  401ff7:	b8 00 00 00 00       	mov    $0x0,%eax
  401ffc:	e8 df ec ff ff       	callq  400ce0 <fprintf@plt>
  402001:	bf 01 00 00 00       	mov    $0x1,%edi
  402006:	e8 b5 ed ff ff       	callq  400dc0 <exit@plt>

000000000040200b <urlencode>:
  40200b:	41 54                	push   %r12
  40200d:	55                   	push   %rbp
  40200e:	53                   	push   %rbx
  40200f:	48 83 ec 10          	sub    $0x10,%rsp
  402013:	48 89 fb             	mov    %rdi,%rbx
  402016:	48 89 f5             	mov    %rsi,%rbp
  402019:	b8 00 00 00 00       	mov    $0x0,%eax
  40201e:	48 c7 c1 ff ff ff ff 	mov    $0xffffffffffffffff,%rcx
  402025:	f2 ae                	repnz scas %es:(%rdi),%al
  402027:	48 f7 d1             	not    %rcx
  40202a:	8d 41 ff             	lea    -0x1(%rcx),%eax
  40202d:	e9 93 00 00 00       	jmpq   4020c5 <urlencode+0xba>
  402032:	0f b6 13             	movzbl (%rbx),%edx
  402035:	80 fa 2a             	cmp    $0x2a,%dl
  402038:	0f 94 c1             	sete   %cl
  40203b:	80 fa 2d             	cmp    $0x2d,%dl
  40203e:	0f 94 c0             	sete   %al
  402041:	08 c1                	or     %al,%cl
  402043:	75 1f                	jne    402064 <urlencode+0x59>
  402045:	80 fa 2e             	cmp    $0x2e,%dl
  402048:	74 1a                	je     402064 <urlencode+0x59>
  40204a:	80 fa 5f             	cmp    $0x5f,%dl
  40204d:	74 15                	je     402064 <urlencode+0x59>
  40204f:	8d 42 d0             	lea    -0x30(%rdx),%eax
  402052:	3c 09                	cmp    $0x9,%al
  402054:	76 0e                	jbe    402064 <urlencode+0x59>
  402056:	8d 42 bf             	lea    -0x41(%rdx),%eax
  402059:	3c 19                	cmp    $0x19,%al
  40205b:	76 07                	jbe    402064 <urlencode+0x59>
  40205d:	8d 42 9f             	lea    -0x61(%rdx),%eax
  402060:	3c 19                	cmp    $0x19,%al
  402062:	77 09                	ja     40206d <urlencode+0x62>
  402064:	88 55 00             	mov    %dl,0x0(%rbp)
  402067:	48 8d 6d 01          	lea    0x1(%rbp),%rbp
  40206b:	eb 51                	jmp    4020be <urlencode+0xb3>
  40206d:	80 fa 20             	cmp    $0x20,%dl
  402070:	75 0a                	jne    40207c <urlencode+0x71>
  402072:	c6 45 00 2b          	movb   $0x2b,0x0(%rbp)
  402076:	48 8d 6d 01          	lea    0x1(%rbp),%rbp
  40207a:	eb 42                	jmp    4020be <urlencode+0xb3>
  40207c:	8d 42 e0             	lea    -0x20(%rdx),%eax
  40207f:	3c 5f                	cmp    $0x5f,%al
  402081:	0f 96 c1             	setbe  %cl
  402084:	80 fa 09             	cmp    $0x9,%dl
  402087:	0f 94 c0             	sete   %al
  40208a:	08 c1                	or     %al,%cl
  40208c:	74 45                	je     4020d3 <urlencode+0xc8>
  40208e:	0f b6 d2             	movzbl %dl,%edx
  402091:	be 58 35 40 00       	mov    $0x403558,%esi
  402096:	48 89 e7             	mov    %rsp,%rdi
  402099:	b8 00 00 00 00       	mov    $0x0,%eax
  40209e:	e8 0d ed ff ff       	callq  400db0 <sprintf@plt>
  4020a3:	0f b6 04 24          	movzbl (%rsp),%eax
  4020a7:	88 45 00             	mov    %al,0x0(%rbp)
  4020aa:	0f b6 44 24 01       	movzbl 0x1(%rsp),%eax
  4020af:	88 45 01             	mov    %al,0x1(%rbp)
  4020b2:	0f b6 44 24 02       	movzbl 0x2(%rsp),%eax
  4020b7:	88 45 02             	mov    %al,0x2(%rbp)
  4020ba:	48 8d 6d 03          	lea    0x3(%rbp),%rbp
  4020be:	48 83 c3 01          	add    $0x1,%rbx
  4020c2:	44 89 e0             	mov    %r12d,%eax
  4020c5:	44 8d 60 ff          	lea    -0x1(%rax),%r12d
  4020c9:	85 c0                	test   %eax,%eax
  4020cb:	0f 85 61 ff ff ff    	jne    402032 <urlencode+0x27>
  4020d1:	eb 05                	jmp    4020d8 <urlencode+0xcd>
  4020d3:	b8 ff ff ff ff       	mov    $0xffffffff,%eax
  4020d8:	48 83 c4 10          	add    $0x10,%rsp
  4020dc:	5b                   	pop    %rbx
  4020dd:	5d                   	pop    %rbp
  4020de:	41 5c                	pop    %r12
  4020e0:	c3                   	retq   

00000000004020e1 <rio_writen>:
  4020e1:	41 55                	push   %r13
  4020e3:	41 54                	push   %r12
  4020e5:	55                   	push   %rbp
  4020e6:	53                   	push   %rbx
  4020e7:	48 83 ec 08          	sub    $0x8,%rsp
  4020eb:	41 89 fc             	mov    %edi,%r12d
  4020ee:	48 89 f5             	mov    %rsi,%rbp
  4020f1:	49 89 d5             	mov    %rdx,%r13
  4020f4:	48 89 d3             	mov    %rdx,%rbx
  4020f7:	eb 28                	jmp    402121 <rio_writen+0x40>
  4020f9:	48 89 da             	mov    %rbx,%rdx
  4020fc:	48 89 ee             	mov    %rbp,%rsi
  4020ff:	44 89 e7             	mov    %r12d,%edi
  402102:	e8 39 eb ff ff       	callq  400c40 <write@plt>
  402107:	48 85 c0             	test   %rax,%rax
  40210a:	7f 0f                	jg     40211b <rio_writen+0x3a>
  40210c:	e8 df ea ff ff       	callq  400bf0 <__errno_location@plt>
  402111:	83 38 04             	cmpl   $0x4,(%rax)
  402114:	75 15                	jne    40212b <rio_writen+0x4a>
  402116:	b8 00 00 00 00       	mov    $0x0,%eax
  40211b:	48 29 c3             	sub    %rax,%rbx
  40211e:	48 01 c5             	add    %rax,%rbp
  402121:	48 85 db             	test   %rbx,%rbx
  402124:	75 d3                	jne    4020f9 <rio_writen+0x18>
  402126:	4c 89 e8             	mov    %r13,%rax
  402129:	eb 07                	jmp    402132 <rio_writen+0x51>
  40212b:	48 c7 c0 ff ff ff ff 	mov    $0xffffffffffffffff,%rax
  402132:	48 83 c4 08          	add    $0x8,%rsp
  402136:	5b                   	pop    %rbx
  402137:	5d                   	pop    %rbp
  402138:	41 5c                	pop    %r12
  40213a:	41 5d                	pop    %r13
  40213c:	c3                   	retq   

000000000040213d <rio_read>:
  40213d:	41 56                	push   %r14
  40213f:	41 55                	push   %r13
  402141:	41 54                	push   %r12
  402143:	55                   	push   %rbp
  402144:	53                   	push   %rbx
  402145:	48 89 fb             	mov    %rdi,%rbx
  402148:	49 89 f6             	mov    %rsi,%r14
  40214b:	49 89 d5             	mov    %rdx,%r13
  40214e:	4c 8d 67 10          	lea    0x10(%rdi),%r12
  402152:	eb 2a                	jmp    40217e <rio_read+0x41>
  402154:	ba 00 20 00 00       	mov    $0x2000,%edx
  402159:	4c 89 e6             	mov    %r12,%rsi
  40215c:	8b 3b                	mov    (%rbx),%edi
  40215e:	e8 3d eb ff ff       	callq  400ca0 <read@plt>
  402163:	89 43 04             	mov    %eax,0x4(%rbx)
  402166:	85 c0                	test   %eax,%eax
  402168:	79 0c                	jns    402176 <rio_read+0x39>
  40216a:	e8 81 ea ff ff       	callq  400bf0 <__errno_location@plt>
  40216f:	83 38 04             	cmpl   $0x4,(%rax)
  402172:	74 0a                	je     40217e <rio_read+0x41>
  402174:	eb 37                	jmp    4021ad <rio_read+0x70>
  402176:	85 c0                	test   %eax,%eax
  402178:	74 3c                	je     4021b6 <rio_read+0x79>
  40217a:	4c 89 63 08          	mov    %r12,0x8(%rbx)
  40217e:	8b 6b 04             	mov    0x4(%rbx),%ebp
  402181:	85 ed                	test   %ebp,%ebp
  402183:	7e cf                	jle    402154 <rio_read+0x17>
  402185:	89 e8                	mov    %ebp,%eax
  402187:	4c 39 e8             	cmp    %r13,%rax
  40218a:	72 03                	jb     40218f <rio_read+0x52>
  40218c:	44 89 ed             	mov    %r13d,%ebp
  40218f:	4c 63 e5             	movslq %ebp,%r12
  402192:	48 8b 73 08          	mov    0x8(%rbx),%rsi
  402196:	4c 89 e2             	mov    %r12,%rdx
  402199:	4c 89 f7             	mov    %r14,%rdi
  40219c:	e8 5f eb ff ff       	callq  400d00 <memcpy@plt>
  4021a1:	4c 01 63 08          	add    %r12,0x8(%rbx)
  4021a5:	29 6b 04             	sub    %ebp,0x4(%rbx)
  4021a8:	4c 89 e0             	mov    %r12,%rax
  4021ab:	eb 0e                	jmp    4021bb <rio_read+0x7e>
  4021ad:	48 c7 c0 ff ff ff ff 	mov    $0xffffffffffffffff,%rax
  4021b4:	eb 05                	jmp    4021bb <rio_read+0x7e>
  4021b6:	b8 00 00 00 00       	mov    $0x0,%eax
  4021bb:	5b                   	pop    %rbx
  4021bc:	5d                   	pop    %rbp
  4021bd:	41 5c                	pop    %r12
  4021bf:	41 5d                	pop    %r13
  4021c1:	41 5e                	pop    %r14
  4021c3:	c3                   	retq   

00000000004021c4 <rio_readlineb>:
  4021c4:	41 55                	push   %r13
  4021c6:	41 54                	push   %r12
  4021c8:	55                   	push   %rbp
  4021c9:	53                   	push   %rbx
  4021ca:	48 83 ec 18          	sub    $0x18,%rsp
  4021ce:	49 89 fd             	mov    %rdi,%r13
  4021d1:	48 89 f5             	mov    %rsi,%rbp
  4021d4:	49 89 d4             	mov    %rdx,%r12
  4021d7:	bb 01 00 00 00       	mov    $0x1,%ebx
  4021dc:	eb 3d                	jmp    40221b <rio_readlineb+0x57>
  4021de:	ba 01 00 00 00       	mov    $0x1,%edx
  4021e3:	48 8d 74 24 0f       	lea    0xf(%rsp),%rsi
  4021e8:	4c 89 ef             	mov    %r13,%rdi
  4021eb:	e8 4d ff ff ff       	callq  40213d <rio_read>
  4021f0:	83 f8 01             	cmp    $0x1,%eax
  4021f3:	75 12                	jne    402207 <rio_readlineb+0x43>
  4021f5:	48 8d 55 01          	lea    0x1(%rbp),%rdx
  4021f9:	0f b6 44 24 0f       	movzbl 0xf(%rsp),%eax
  4021fe:	88 45 00             	mov    %al,0x0(%rbp)
  402201:	3c 0a                	cmp    $0xa,%al
  402203:	75 0f                	jne    402214 <rio_readlineb+0x50>
  402205:	eb 1b                	jmp    402222 <rio_readlineb+0x5e>
  402207:	85 c0                	test   %eax,%eax
  402209:	75 23                	jne    40222e <rio_readlineb+0x6a>
  40220b:	48 83 fb 01          	cmp    $0x1,%rbx
  40220f:	90                   	nop
  402210:	75 13                	jne    402225 <rio_readlineb+0x61>
  402212:	eb 23                	jmp    402237 <rio_readlineb+0x73>
  402214:	48 83 c3 01          	add    $0x1,%rbx
  402218:	48 89 d5             	mov    %rdx,%rbp
  40221b:	4c 39 e3             	cmp    %r12,%rbx
  40221e:	72 be                	jb     4021de <rio_readlineb+0x1a>
  402220:	eb 03                	jmp    402225 <rio_readlineb+0x61>
  402222:	48 89 d5             	mov    %rdx,%rbp
  402225:	c6 45 00 00          	movb   $0x0,0x0(%rbp)
  402229:	48 89 d8             	mov    %rbx,%rax
  40222c:	eb 0e                	jmp    40223c <rio_readlineb+0x78>
  40222e:	48 c7 c0 ff ff ff ff 	mov    $0xffffffffffffffff,%rax
  402235:	eb 05                	jmp    40223c <rio_readlineb+0x78>
  402237:	b8 00 00 00 00       	mov    $0x0,%eax
  40223c:	48 83 c4 18          	add    $0x18,%rsp
  402240:	5b                   	pop    %rbx
  402241:	5d                   	pop    %rbp
  402242:	41 5c                	pop    %r12
  402244:	41 5d                	pop    %r13
  402246:	c3                   	retq   

0000000000402247 <submitr>:
  402247:	41 57                	push   %r15
  402249:	41 56                	push   %r14
  40224b:	41 55                	push   %r13
  40224d:	41 54                	push   %r12
  40224f:	55                   	push   %rbp
  402250:	53                   	push   %rbx
  402251:	48 81 ec 48 a0 00 00 	sub    $0xa048,%rsp
  402258:	49 89 fc             	mov    %rdi,%r12
  40225b:	89 74 24 04          	mov    %esi,0x4(%rsp)
  40225f:	49 89 d7             	mov    %rdx,%r15
  402262:	49 89 ce             	mov    %rcx,%r14
  402265:	4c 89 44 24 08       	mov    %r8,0x8(%rsp)
  40226a:	4d 89 cd             	mov    %r9,%r13
  40226d:	48 8b 9c 24 80 a0 00 	mov    0xa080(%rsp),%rbx
  402274:	00 
  402275:	c7 84 24 1c 20 00 00 	movl   $0x0,0x201c(%rsp)
  40227c:	00 00 00 00 
  402280:	ba 00 00 00 00       	mov    $0x0,%edx
  402285:	be 01 00 00 00       	mov    $0x1,%esi
  40228a:	bf 02 00 00 00       	mov    $0x2,%edi
  40228f:	e8 4c eb ff ff       	callq  400de0 <socket@plt>
  402294:	89 c5                	mov    %eax,%ebp
  402296:	85 c0                	test   %eax,%eax
  402298:	79 4e                	jns    4022e8 <submitr+0xa1>
  40229a:	48 b8 45 72 72 6f 72 	movabs $0x43203a726f727245,%rax
  4022a1:	3a 20 43 
  4022a4:	48 89 03             	mov    %rax,(%rbx)
  4022a7:	48 b8 6c 69 65 6e 74 	movabs $0x6e7520746e65696c,%rax
  4022ae:	20 75 6e 
  4022b1:	48 89 43 08          	mov    %rax,0x8(%rbx)
  4022b5:	48 b8 61 62 6c 65 20 	movabs $0x206f7420656c6261,%rax
  4022bc:	74 6f 20 
  4022bf:	48 89 43 10          	mov    %rax,0x10(%rbx)
  4022c3:	48 b8 63 72 65 61 74 	movabs $0x7320657461657263,%rax
  4022ca:	65 20 73 
  4022cd:	48 89 43 18          	mov    %rax,0x18(%rbx)
  4022d1:	c7 43 20 6f 63 6b 65 	movl   $0x656b636f,0x20(%rbx)
  4022d8:	66 c7 43 24 74 00    	movw   $0x74,0x24(%rbx)
  4022de:	b8 ff ff ff ff       	mov    $0xffffffff,%eax
  4022e3:	e9 68 06 00 00       	jmpq   402950 <submitr+0x709>
  4022e8:	4c 89 e7             	mov    %r12,%rdi
  4022eb:	e8 e0 e9 ff ff       	callq  400cd0 <gethostbyname@plt>
  4022f0:	48 85 c0             	test   %rax,%rax
  4022f3:	75 67                	jne    40235c <submitr+0x115>
  4022f5:	48 b8 45 72 72 6f 72 	movabs $0x44203a726f727245,%rax
  4022fc:	3a 20 44 
  4022ff:	48 89 03             	mov    %rax,(%rbx)
  402302:	48 b8 4e 53 20 69 73 	movabs $0x6e7520736920534e,%rax
  402309:	20 75 6e 
  40230c:	48 89 43 08          	mov    %rax,0x8(%rbx)
  402310:	48 b8 61 62 6c 65 20 	movabs $0x206f7420656c6261,%rax
  402317:	74 6f 20 
  40231a:	48 89 43 10          	mov    %rax,0x10(%rbx)
  40231e:	48 b8 72 65 73 6f 6c 	movabs $0x2065766c6f736572,%rax
  402325:	76 65 20 
  402328:	48 89 43 18          	mov    %rax,0x18(%rbx)
  40232c:	48 b8 73 65 72 76 65 	movabs $0x6120726576726573,%rax
  402333:	72 20 61 
  402336:	48 89 43 20          	mov    %rax,0x20(%rbx)
  40233a:	c7 43 28 64 64 72 65 	movl   $0x65726464,0x28(%rbx)
  402341:	66 c7 43 2c 73 73    	movw   $0x7373,0x2c(%rbx)
  402347:	c6 43 2e 00          	movb   $0x0,0x2e(%rbx)
  40234b:	89 ef                	mov    %ebp,%edi
  40234d:	e8 3e e9 ff ff       	callq  400c90 <close@plt>
  402352:	b8 ff ff ff ff       	mov    $0xffffffff,%eax
  402357:	e9 f4 05 00 00       	jmpq   402950 <submitr+0x709>
  40235c:	48 c7 84 24 30 a0 00 	movq   $0x0,0xa030(%rsp)
  402363:	00 00 00 00 00 
  402368:	48 c7 84 24 38 a0 00 	movq   $0x0,0xa038(%rsp)
  40236f:	00 00 00 00 00 
  402374:	66 c7 84 24 30 a0 00 	movw   $0x2,0xa030(%rsp)
  40237b:	00 02 00 
  40237e:	48 8b 48 18          	mov    0x18(%rax),%rcx
  402382:	48 63 50 14          	movslq 0x14(%rax),%rdx
  402386:	48 8d b4 24 34 a0 00 	lea    0xa034(%rsp),%rsi
  40238d:	00 
  40238e:	48 8b 39             	mov    (%rcx),%rdi
  402391:	e8 ca e9 ff ff       	callq  400d60 <bcopy@plt>
  402396:	0f b7 44 24 04       	movzwl 0x4(%rsp),%eax
  40239b:	66 c1 c8 08          	ror    $0x8,%ax
  40239f:	66 89 84 24 32 a0 00 	mov    %ax,0xa032(%rsp)
  4023a6:	00 
  4023a7:	ba 10 00 00 00       	mov    $0x10,%edx
  4023ac:	48 8d b4 24 30 a0 00 	lea    0xa030(%rsp),%rsi
  4023b3:	00 
  4023b4:	89 ef                	mov    %ebp,%edi
  4023b6:	e8 15 ea ff ff       	callq  400dd0 <connect@plt>
  4023bb:	85 c0                	test   %eax,%eax
  4023bd:	79 59                	jns    402418 <submitr+0x1d1>
  4023bf:	48 b8 45 72 72 6f 72 	movabs $0x55203a726f727245,%rax
  4023c6:	3a 20 55 
  4023c9:	48 89 03             	mov    %rax,(%rbx)
  4023cc:	48 b8 6e 61 62 6c 65 	movabs $0x6f7420656c62616e,%rax
  4023d3:	20 74 6f 
  4023d6:	48 89 43 08          	mov    %rax,0x8(%rbx)
  4023da:	48 b8 20 63 6f 6e 6e 	movabs $0x7463656e6e6f6320,%rax
  4023e1:	65 63 74 
  4023e4:	48 89 43 10          	mov    %rax,0x10(%rbx)
  4023e8:	48 b8 20 74 6f 20 74 	movabs $0x20656874206f7420,%rax
  4023ef:	68 65 20 
  4023f2:	48 89 43 18          	mov    %rax,0x18(%rbx)
  4023f6:	c7 43 20 73 65 72 76 	movl   $0x76726573,0x20(%rbx)
  4023fd:	66 c7 43 24 65 72    	movw   $0x7265,0x24(%rbx)
  402403:	c6 43 26 00          	movb   $0x0,0x26(%rbx)
  402407:	89 ef                	mov    %ebp,%edi
  402409:	e8 82 e8 ff ff       	callq  400c90 <close@plt>
  40240e:	b8 ff ff ff ff       	mov    $0xffffffff,%eax
  402413:	e9 38 05 00 00       	jmpq   402950 <submitr+0x709>
  402418:	48 c7 c2 ff ff ff ff 	mov    $0xffffffffffffffff,%rdx
  40241f:	4c 89 ef             	mov    %r13,%rdi
  402422:	b8 00 00 00 00       	mov    $0x0,%eax
  402427:	48 89 d1             	mov    %rdx,%rcx
  40242a:	f2 ae                	repnz scas %es:(%rdi),%al
  40242c:	48 f7 d1             	not    %rcx
  40242f:	48 89 ce             	mov    %rcx,%rsi
  402432:	4c 89 ff             	mov    %r15,%rdi
  402435:	48 89 d1             	mov    %rdx,%rcx
  402438:	f2 ae                	repnz scas %es:(%rdi),%al
  40243a:	48 f7 d1             	not    %rcx
  40243d:	49 89 c8             	mov    %rcx,%r8
  402440:	4c 89 f7             	mov    %r14,%rdi
  402443:	48 89 d1             	mov    %rdx,%rcx
  402446:	f2 ae                	repnz scas %es:(%rdi),%al
  402448:	49 29 c8             	sub    %rcx,%r8
  40244b:	48 8b 7c 24 08       	mov    0x8(%rsp),%rdi
  402450:	48 89 d1             	mov    %rdx,%rcx
  402453:	f2 ae                	repnz scas %es:(%rdi),%al
  402455:	49 29 c8             	sub    %rcx,%r8
  402458:	48 8d 44 76 fd       	lea    -0x3(%rsi,%rsi,2),%rax
  40245d:	49 8d 44 00 7b       	lea    0x7b(%r8,%rax,1),%rax
  402462:	48 3d 00 20 00 00    	cmp    $0x2000,%rax
  402468:	76 72                	jbe    4024dc <submitr+0x295>
  40246a:	48 b8 45 72 72 6f 72 	movabs $0x52203a726f727245,%rax
  402471:	3a 20 52 
  402474:	48 89 03             	mov    %rax,(%rbx)
  402477:	48 b8 65 73 75 6c 74 	movabs $0x747320746c757365,%rax
  40247e:	20 73 74 
  402481:	48 89 43 08          	mov    %rax,0x8(%rbx)
  402485:	48 b8 72 69 6e 67 20 	movabs $0x6f6f7420676e6972,%rax
  40248c:	74 6f 6f 
  40248f:	48 89 43 10          	mov    %rax,0x10(%rbx)
  402493:	48 b8 20 6c 61 72 67 	movabs $0x202e656772616c20,%rax
  40249a:	65 2e 20 
  40249d:	48 89 43 18          	mov    %rax,0x18(%rbx)
  4024a1:	48 b8 49 6e 63 72 65 	movabs $0x6573616572636e49,%rax
  4024a8:	61 73 65 
  4024ab:	48 89 43 20          	mov    %rax,0x20(%rbx)
  4024af:	48 b8 20 53 55 42 4d 	movabs $0x5254494d42555320,%rax
  4024b6:	49 54 52 
  4024b9:	48 89 43 28          	mov    %rax,0x28(%rbx)
  4024bd:	48 b8 5f 4d 41 58 42 	movabs $0x46554258414d5f,%rax
  4024c4:	55 46 00 
  4024c7:	48 89 43 30          	mov    %rax,0x30(%rbx)
  4024cb:	89 ef                	mov    %ebp,%edi
  4024cd:	e8 be e7 ff ff       	callq  400c90 <close@plt>
  4024d2:	b8 ff ff ff ff       	mov    $0xffffffff,%eax
  4024d7:	e9 74 04 00 00       	jmpq   402950 <submitr+0x709>
  4024dc:	48 8d b4 24 20 40 00 	lea    0x4020(%rsp),%rsi
  4024e3:	00 
  4024e4:	b9 00 04 00 00       	mov    $0x400,%ecx
  4024e9:	b8 00 00 00 00       	mov    $0x0,%eax
  4024ee:	48 89 f7             	mov    %rsi,%rdi
  4024f1:	f3 48 ab             	rep stos %rax,%es:(%rdi)
  4024f4:	4c 89 ef             	mov    %r13,%rdi
  4024f7:	e8 0f fb ff ff       	callq  40200b <urlencode>
  4024fc:	85 c0                	test   %eax,%eax
  4024fe:	0f 89 8a 00 00 00    	jns    40258e <submitr+0x347>
  402504:	48 b8 45 72 72 6f 72 	movabs $0x52203a726f727245,%rax
  40250b:	3a 20 52 
  40250e:	48 89 03             	mov    %rax,(%rbx)
  402511:	48 b8 65 73 75 6c 74 	movabs $0x747320746c757365,%rax
  402518:	20 73 74 
  40251b:	48 89 43 08          	mov    %rax,0x8(%rbx)
  40251f:	48 b8 72 69 6e 67 20 	movabs $0x6e6f6320676e6972,%rax
  402526:	63 6f 6e 
  402529:	48 89 43 10          	mov    %rax,0x10(%rbx)
  40252d:	48 b8 74 61 69 6e 73 	movabs $0x6e6120736e696174,%rax
  402534:	20 61 6e 
  402537:	48 89 43 18          	mov    %rax,0x18(%rbx)
  40253b:	48 b8 20 69 6c 6c 65 	movabs $0x6c6167656c6c6920,%rax
  402542:	67 61 6c 
  402545:	48 89 43 20          	mov    %rax,0x20(%rbx)
  402549:	48 b8 20 6f 72 20 75 	movabs $0x72706e7520726f20,%rax
  402550:	6e 70 72 
  402553:	48 89 43 28          	mov    %rax,0x28(%rbx)
  402557:	48 b8 69 6e 74 61 62 	movabs $0x20656c6261746e69,%rax
  40255e:	6c 65 20 
  402561:	48 89 43 30          	mov    %rax,0x30(%rbx)
  402565:	48 b8 63 68 61 72 61 	movabs $0x6574636172616863,%rax
  40256c:	63 74 65 
  40256f:	48 89 43 38          	mov    %rax,0x38(%rbx)
  402573:	66 c7 43 40 72 2e    	movw   $0x2e72,0x40(%rbx)
  402579:	c6 43 42 00          	movb   $0x0,0x42(%rbx)
  40257d:	89 ef                	mov    %ebp,%edi
  40257f:	e8 0c e7 ff ff       	callq  400c90 <close@plt>
  402584:	b8 ff ff ff ff       	mov    $0xffffffff,%eax
  402589:	e9 c2 03 00 00       	jmpq   402950 <submitr+0x709>
  40258e:	4d 89 e1             	mov    %r12,%r9
  402591:	4c 8d 84 24 20 40 00 	lea    0x4020(%rsp),%r8
  402598:	00 
  402599:	4c 89 f9             	mov    %r15,%rcx
  40259c:	4c 89 f2             	mov    %r14,%rdx
  40259f:	be e8 34 40 00       	mov    $0x4034e8,%esi
  4025a4:	48 8d bc 24 20 60 00 	lea    0x6020(%rsp),%rdi
  4025ab:	00 
  4025ac:	b8 00 00 00 00       	mov    $0x0,%eax
  4025b1:	e8 fa e7 ff ff       	callq  400db0 <sprintf@plt>
  4025b6:	48 8d bc 24 20 60 00 	lea    0x6020(%rsp),%rdi
  4025bd:	00 
  4025be:	b8 00 00 00 00       	mov    $0x0,%eax
  4025c3:	48 c7 c1 ff ff ff ff 	mov    $0xffffffffffffffff,%rcx
  4025ca:	f2 ae                	repnz scas %es:(%rdi),%al
  4025cc:	48 f7 d1             	not    %rcx
  4025cf:	48 8d 51 ff          	lea    -0x1(%rcx),%rdx
  4025d3:	48 8d b4 24 20 60 00 	lea    0x6020(%rsp),%rsi
  4025da:	00 
  4025db:	89 ef                	mov    %ebp,%edi
  4025dd:	e8 ff fa ff ff       	callq  4020e1 <rio_writen>
  4025e2:	48 85 c0             	test   %rax,%rax
  4025e5:	79 6e                	jns    402655 <submitr+0x40e>
  4025e7:	48 b8 45 72 72 6f 72 	movabs $0x43203a726f727245,%rax
  4025ee:	3a 20 43 
  4025f1:	48 89 03             	mov    %rax,(%rbx)
  4025f4:	48 b8 6c 69 65 6e 74 	movabs $0x6e7520746e65696c,%rax
  4025fb:	20 75 6e 
  4025fe:	48 89 43 08          	mov    %rax,0x8(%rbx)
  402602:	48 b8 61 62 6c 65 20 	movabs $0x206f7420656c6261,%rax
  402609:	74 6f 20 
  40260c:	48 89 43 10          	mov    %rax,0x10(%rbx)
  402610:	48 b8 77 72 69 74 65 	movabs $0x6f74206574697277,%rax
  402617:	20 74 6f 
  40261a:	48 89 43 18          	mov    %rax,0x18(%rbx)
  40261e:	48 b8 20 74 68 65 20 	movabs $0x7365722065687420,%rax
  402625:	72 65 73 
  402628:	48 89 43 20          	mov    %rax,0x20(%rbx)
  40262c:	48 b8 75 6c 74 20 73 	movabs $0x7672657320746c75,%rax
  402633:	65 72 76 
  402636:	48 89 43 28          	mov    %rax,0x28(%rbx)
  40263a:	66 c7 43 30 65 72    	movw   $0x7265,0x30(%rbx)
  402640:	c6 43 32 00          	movb   $0x0,0x32(%rbx)
  402644:	89 ef                	mov    %ebp,%edi
  402646:	e8 45 e6 ff ff       	callq  400c90 <close@plt>
  40264b:	b8 ff ff ff ff       	mov    $0xffffffff,%eax
  402650:	e9 fb 02 00 00       	jmpq   402950 <submitr+0x709>
  402655:	89 ee                	mov    %ebp,%esi
  402657:	48 8d bc 24 20 80 00 	lea    0x8020(%rsp),%rdi
  40265e:	00 
  40265f:	e8 6c f9 ff ff       	callq  401fd0 <rio_readinitb>
  402664:	ba 00 20 00 00       	mov    $0x2000,%edx
  402669:	48 8d b4 24 20 60 00 	lea    0x6020(%rsp),%rsi
  402670:	00 
  402671:	48 8d bc 24 20 80 00 	lea    0x8020(%rsp),%rdi
  402678:	00 
  402679:	e8 46 fb ff ff       	callq  4021c4 <rio_readlineb>
  40267e:	48 85 c0             	test   %rax,%rax
  402681:	7f 7d                	jg     402700 <submitr+0x4b9>
  402683:	48 b8 45 72 72 6f 72 	movabs $0x43203a726f727245,%rax
  40268a:	3a 20 43 
  40268d:	48 89 03             	mov    %rax,(%rbx)
  402690:	48 b8 6c 69 65 6e 74 	movabs $0x6e7520746e65696c,%rax
  402697:	20 75 6e 
  40269a:	48 89 43 08          	mov    %rax,0x8(%rbx)
  40269e:	48 b8 61 62 6c 65 20 	movabs $0x206f7420656c6261,%rax
  4026a5:	74 6f 20 
  4026a8:	48 89 43 10          	mov    %rax,0x10(%rbx)
  4026ac:	48 b8 72 65 61 64 20 	movabs $0x7269662064616572,%rax
  4026b3:	66 69 72 
  4026b6:	48 89 43 18          	mov    %rax,0x18(%rbx)
  4026ba:	48 b8 73 74 20 68 65 	movabs $0x6564616568207473,%rax
  4026c1:	61 64 65 
  4026c4:	48 89 43 20          	mov    %rax,0x20(%rbx)
  4026c8:	48 b8 72 20 66 72 6f 	movabs $0x72206d6f72662072,%rax
  4026cf:	6d 20 72 
  4026d2:	48 89 43 28          	mov    %rax,0x28(%rbx)
  4026d6:	48 b8 65 73 75 6c 74 	movabs $0x657320746c757365,%rax
  4026dd:	20 73 65 
  4026e0:	48 89 43 30          	mov    %rax,0x30(%rbx)
  4026e4:	c7 43 38 72 76 65 72 	movl   $0x72657672,0x38(%rbx)
  4026eb:	c6 43 3c 00          	movb   $0x0,0x3c(%rbx)
  4026ef:	89 ef                	mov    %ebp,%edi
  4026f1:	e8 9a e5 ff ff       	callq  400c90 <close@plt>
  4026f6:	b8 ff ff ff ff       	mov    $0xffffffff,%eax
  4026fb:	e9 50 02 00 00       	jmpq   402950 <submitr+0x709>
  402700:	4c 8d 44 24 10       	lea    0x10(%rsp),%r8
  402705:	48 8d 8c 24 1c 20 00 	lea    0x201c(%rsp),%rcx
  40270c:	00 
  40270d:	48 8d 94 24 20 20 00 	lea    0x2020(%rsp),%rdx
  402714:	00 
  402715:	be 5f 35 40 00       	mov    $0x40355f,%esi
  40271a:	48 8d bc 24 20 60 00 	lea    0x6020(%rsp),%rdi
  402721:	00 
  402722:	b8 00 00 00 00       	mov    $0x0,%eax
  402727:	e8 14 e6 ff ff       	callq  400d40 <__isoc99_sscanf@plt>
  40272c:	e9 98 00 00 00       	jmpq   4027c9 <submitr+0x582>
  402731:	ba 00 20 00 00       	mov    $0x2000,%edx
  402736:	48 8d b4 24 20 60 00 	lea    0x6020(%rsp),%rsi
  40273d:	00 
  40273e:	48 8d bc 24 20 80 00 	lea    0x8020(%rsp),%rdi
  402745:	00 
  402746:	e8 79 fa ff ff       	callq  4021c4 <rio_readlineb>
  40274b:	48 85 c0             	test   %rax,%rax
  40274e:	7f 79                	jg     4027c9 <submitr+0x582>
  402750:	48 b8 45 72 72 6f 72 	movabs $0x43203a726f727245,%rax
  402757:	3a 20 43 
  40275a:	48 89 03             	mov    %rax,(%rbx)
  40275d:	48 b8 6c 69 65 6e 74 	movabs $0x6e7520746e65696c,%rax
  402764:	20 75 6e 
  402767:	48 89 43 08          	mov    %rax,0x8(%rbx)
  40276b:	48 b8 61 62 6c 65 20 	movabs $0x206f7420656c6261,%rax
  402772:	74 6f 20 
  402775:	48 89 43 10          	mov    %rax,0x10(%rbx)
  402779:	48 b8 72 65 61 64 20 	movabs $0x6165682064616572,%rax
  402780:	68 65 61 
  402783:	48 89 43 18          	mov    %rax,0x18(%rbx)
  402787:	48 b8 64 65 72 73 20 	movabs $0x6f72662073726564,%rax
  40278e:	66 72 6f 
  402791:	48 89 43 20          	mov    %rax,0x20(%rbx)
  402795:	48 b8 6d 20 74 68 65 	movabs $0x657220656874206d,%rax
  40279c:	20 72 65 
  40279f:	48 89 43 28          	mov    %rax,0x28(%rbx)
  4027a3:	48 b8 73 75 6c 74 20 	movabs $0x72657320746c7573,%rax
  4027aa:	73 65 72 
  4027ad:	48 89 43 30          	mov    %rax,0x30(%rbx)
  4027b1:	c7 43 38 76 65 72 00 	movl   $0x726576,0x38(%rbx)
  4027b8:	89 ef                	mov    %ebp,%edi
  4027ba:	e8 d1 e4 ff ff       	callq  400c90 <close@plt>
  4027bf:	b8 ff ff ff ff       	mov    $0xffffffff,%eax
  4027c4:	e9 87 01 00 00       	jmpq   402950 <submitr+0x709>
  4027c9:	0f b6 84 24 20 60 00 	movzbl 0x6020(%rsp),%eax
  4027d0:	00 
  4027d1:	83 e8 0d             	sub    $0xd,%eax
  4027d4:	75 15                	jne    4027eb <submitr+0x5a4>
  4027d6:	0f b6 84 24 21 60 00 	movzbl 0x6021(%rsp),%eax
  4027dd:	00 
  4027de:	83 e8 0a             	sub    $0xa,%eax
  4027e1:	75 08                	jne    4027eb <submitr+0x5a4>
  4027e3:	0f b6 84 24 22 60 00 	movzbl 0x6022(%rsp),%eax
  4027ea:	00 
  4027eb:	85 c0                	test   %eax,%eax
  4027ed:	0f 85 3e ff ff ff    	jne    402731 <submitr+0x4ea>
  4027f3:	ba 00 20 00 00       	mov    $0x2000,%edx
  4027f8:	48 8d b4 24 20 60 00 	lea    0x6020(%rsp),%rsi
  4027ff:	00 
  402800:	48 8d bc 24 20 80 00 	lea    0x8020(%rsp),%rdi
  402807:	00 
  402808:	e8 b7 f9 ff ff       	callq  4021c4 <rio_readlineb>
  40280d:	48 85 c0             	test   %rax,%rax
  402810:	0f 8f 83 00 00 00    	jg     402899 <submitr+0x652>
  402816:	48 b8 45 72 72 6f 72 	movabs $0x43203a726f727245,%rax
  40281d:	3a 20 43 
  402820:	48 89 03             	mov    %rax,(%rbx)
  402823:	48 b8 6c 69 65 6e 74 	movabs $0x6e7520746e65696c,%rax
  40282a:	20 75 6e 
  40282d:	48 89 43 08          	mov    %rax,0x8(%rbx)
  402831:	48 b8 61 62 6c 65 20 	movabs $0x206f7420656c6261,%rax
  402838:	74 6f 20 
  40283b:	48 89 43 10          	mov    %rax,0x10(%rbx)
  40283f:	48 b8 72 65 61 64 20 	movabs $0x6174732064616572,%rax
  402846:	73 74 61 
  402849:	48 89 43 18          	mov    %rax,0x18(%rbx)
  40284d:	48 b8 74 75 73 20 6d 	movabs $0x7373656d20737574,%rax
  402854:	65 73 73 
  402857:	48 89 43 20          	mov    %rax,0x20(%rbx)
  40285b:	48 b8 61 67 65 20 66 	movabs $0x6d6f726620656761,%rax
  402862:	72 6f 6d 
  402865:	48 89 43 28          	mov    %rax,0x28(%rbx)
  402869:	48 b8 20 72 65 73 75 	movabs $0x20746c7573657220,%rax
  402870:	6c 74 20 
  402873:	48 89 43 30          	mov    %rax,0x30(%rbx)
  402877:	c7 43 38 73 65 72 76 	movl   $0x76726573,0x38(%rbx)
  40287e:	66 c7 43 3c 65 72    	movw   $0x7265,0x3c(%rbx)
  402884:	c6 43 3e 00          	movb   $0x0,0x3e(%rbx)
  402888:	89 ef                	mov    %ebp,%edi
  40288a:	e8 01 e4 ff ff       	callq  400c90 <close@plt>
  40288f:	b8 ff ff ff ff       	mov    $0xffffffff,%eax
  402894:	e9 b7 00 00 00       	jmpq   402950 <submitr+0x709>
  402899:	8b 94 24 1c 20 00 00 	mov    0x201c(%rsp),%edx
  4028a0:	81 fa c8 00 00 00    	cmp    $0xc8,%edx
  4028a6:	74 28                	je     4028d0 <submitr+0x689>
  4028a8:	48 8d 4c 24 10       	lea    0x10(%rsp),%rcx
  4028ad:	be 28 35 40 00       	mov    $0x403528,%esi
  4028b2:	48 89 df             	mov    %rbx,%rdi
  4028b5:	b8 00 00 00 00       	mov    $0x0,%eax
  4028ba:	e8 f1 e4 ff ff       	callq  400db0 <sprintf@plt>
  4028bf:	89 ef                	mov    %ebp,%edi
  4028c1:	e8 ca e3 ff ff       	callq  400c90 <close@plt>
  4028c6:	b8 ff ff ff ff       	mov    $0xffffffff,%eax
  4028cb:	e9 80 00 00 00       	jmpq   402950 <submitr+0x709>
  4028d0:	48 8d b4 24 20 60 00 	lea    0x6020(%rsp),%rsi
  4028d7:	00 
  4028d8:	48 89 df             	mov    %rbx,%rdi
  4028db:	e8 40 e3 ff ff       	callq  400c20 <strcpy@plt>
  4028e0:	89 ef                	mov    %ebp,%edi
  4028e2:	e8 a9 e3 ff ff       	callq  400c90 <close@plt>
  4028e7:	0f b6 03             	movzbl (%rbx),%eax
  4028ea:	83 e8 4f             	sub    $0x4f,%eax
  4028ed:	75 18                	jne    402907 <submitr+0x6c0>
  4028ef:	0f b6 53 01          	movzbl 0x1(%rbx),%edx
  4028f3:	83 ea 4b             	sub    $0x4b,%edx
  4028f6:	75 11                	jne    402909 <submitr+0x6c2>
  4028f8:	0f b6 53 02          	movzbl 0x2(%rbx),%edx
  4028fc:	83 ea 0a             	sub    $0xa,%edx
  4028ff:	75 08                	jne    402909 <submitr+0x6c2>
  402901:	0f b6 53 03          	movzbl 0x3(%rbx),%edx
  402905:	eb 02                	jmp    402909 <submitr+0x6c2>
  402907:	89 c2                	mov    %eax,%edx
  402909:	85 d2                	test   %edx,%edx
  40290b:	74 30                	je     40293d <submitr+0x6f6>
  40290d:	bf 70 35 40 00       	mov    $0x403570,%edi
  402912:	b9 05 00 00 00       	mov    $0x5,%ecx
  402917:	48 89 de             	mov    %rbx,%rsi
  40291a:	f3 a6                	repz cmpsb %es:(%rdi),%ds:(%rsi)
  40291c:	0f 97 c1             	seta   %cl
  40291f:	0f 92 c2             	setb   %dl
  402922:	38 d1                	cmp    %dl,%cl
  402924:	74 1e                	je     402944 <submitr+0x6fd>
  402926:	85 c0                	test   %eax,%eax
  402928:	75 0d                	jne    402937 <submitr+0x6f0>
  40292a:	0f b6 43 01          	movzbl 0x1(%rbx),%eax
  40292e:	83 e8 4b             	sub    $0x4b,%eax
  402931:	75 04                	jne    402937 <submitr+0x6f0>
  402933:	0f b6 43 02          	movzbl 0x2(%rbx),%eax
  402937:	85 c0                	test   %eax,%eax
  402939:	75 10                	jne    40294b <submitr+0x704>
  40293b:	eb 13                	jmp    402950 <submitr+0x709>
  40293d:	b8 00 00 00 00       	mov    $0x0,%eax
  402942:	eb 0c                	jmp    402950 <submitr+0x709>
  402944:	b8 00 00 00 00       	mov    $0x0,%eax
  402949:	eb 05                	jmp    402950 <submitr+0x709>
  40294b:	b8 ff ff ff ff       	mov    $0xffffffff,%eax
  402950:	48 81 c4 48 a0 00 00 	add    $0xa048,%rsp
  402957:	5b                   	pop    %rbx
  402958:	5d                   	pop    %rbp
  402959:	41 5c                	pop    %r12
  40295b:	41 5d                	pop    %r13
  40295d:	41 5e                	pop    %r14
  40295f:	41 5f                	pop    %r15
  402961:	c3                   	retq   

0000000000402962 <init_timeout>:
  402962:	53                   	push   %rbx
  402963:	89 fb                	mov    %edi,%ebx
  402965:	85 ff                	test   %edi,%edi
  402967:	74 1f                	je     402988 <init_timeout+0x26>
  402969:	85 ff                	test   %edi,%edi
  40296b:	79 05                	jns    402972 <init_timeout+0x10>
  40296d:	bb 00 00 00 00       	mov    $0x0,%ebx
  402972:	be e2 1f 40 00       	mov    $0x401fe2,%esi
  402977:	bf 0e 00 00 00       	mov    $0xe,%edi
  40297c:	e8 3f e3 ff ff       	callq  400cc0 <signal@plt>
  402981:	89 df                	mov    %ebx,%edi
  402983:	e8 f8 e2 ff ff       	callq  400c80 <alarm@plt>
  402988:	5b                   	pop    %rbx
  402989:	c3                   	retq   

000000000040298a <init_driver>:
  40298a:	55                   	push   %rbp
  40298b:	53                   	push   %rbx
  40298c:	48 83 ec 18          	sub    $0x18,%rsp
  402990:	48 89 fd             	mov    %rdi,%rbp
  402993:	be 01 00 00 00       	mov    $0x1,%esi
  402998:	bf 0d 00 00 00       	mov    $0xd,%edi
  40299d:	e8 1e e3 ff ff       	callq  400cc0 <signal@plt>
  4029a2:	be 01 00 00 00       	mov    $0x1,%esi
  4029a7:	bf 1d 00 00 00       	mov    $0x1d,%edi
  4029ac:	e8 0f e3 ff ff       	callq  400cc0 <signal@plt>
  4029b1:	be 01 00 00 00       	mov    $0x1,%esi
  4029b6:	bf 1d 00 00 00       	mov    $0x1d,%edi
  4029bb:	e8 00 e3 ff ff       	callq  400cc0 <signal@plt>
  4029c0:	ba 00 00 00 00       	mov    $0x0,%edx
  4029c5:	be 01 00 00 00       	mov    $0x1,%esi
  4029ca:	bf 02 00 00 00       	mov    $0x2,%edi
  4029cf:	e8 0c e4 ff ff       	callq  400de0 <socket@plt>
  4029d4:	89 c3                	mov    %eax,%ebx
  4029d6:	85 c0                	test   %eax,%eax
  4029d8:	79 4f                	jns    402a29 <init_driver+0x9f>
  4029da:	48 b8 45 72 72 6f 72 	movabs $0x43203a726f727245,%rax
  4029e1:	3a 20 43 
  4029e4:	48 89 45 00          	mov    %rax,0x0(%rbp)
  4029e8:	48 b8 6c 69 65 6e 74 	movabs $0x6e7520746e65696c,%rax
  4029ef:	20 75 6e 
  4029f2:	48 89 45 08          	mov    %rax,0x8(%rbp)
  4029f6:	48 b8 61 62 6c 65 20 	movabs $0x206f7420656c6261,%rax
  4029fd:	74 6f 20 
  402a00:	48 89 45 10          	mov    %rax,0x10(%rbp)
  402a04:	48 b8 63 72 65 61 74 	movabs $0x7320657461657263,%rax
  402a0b:	65 20 73 
  402a0e:	48 89 45 18          	mov    %rax,0x18(%rbp)
  402a12:	c7 45 20 6f 63 6b 65 	movl   $0x656b636f,0x20(%rbp)
  402a19:	66 c7 45 24 74 00    	movw   $0x74,0x24(%rbp)
  402a1f:	b8 ff ff ff ff       	mov    $0xffffffff,%eax
  402a24:	e9 23 01 00 00       	jmpq   402b4c <init_driver+0x1c2>
  402a29:	bf 67 30 40 00       	mov    $0x403067,%edi
  402a2e:	e8 9d e2 ff ff       	callq  400cd0 <gethostbyname@plt>
  402a33:	48 85 c0             	test   %rax,%rax
  402a36:	75 68                	jne    402aa0 <init_driver+0x116>
  402a38:	48 b8 45 72 72 6f 72 	movabs $0x44203a726f727245,%rax
  402a3f:	3a 20 44 
  402a42:	48 89 45 00          	mov    %rax,0x0(%rbp)
  402a46:	48 b8 4e 53 20 69 73 	movabs $0x6e7520736920534e,%rax
  402a4d:	20 75 6e 
  402a50:	48 89 45 08          	mov    %rax,0x8(%rbp)
  402a54:	48 b8 61 62 6c 65 20 	movabs $0x206f7420656c6261,%rax
  402a5b:	74 6f 20 
  402a5e:	48 89 45 10          	mov    %rax,0x10(%rbp)
  402a62:	48 b8 72 65 73 6f 6c 	movabs $0x2065766c6f736572,%rax
  402a69:	76 65 20 
  402a6c:	48 89 45 18          	mov    %rax,0x18(%rbp)
  402a70:	48 b8 73 65 72 76 65 	movabs $0x6120726576726573,%rax
  402a77:	72 20 61 
  402a7a:	48 89 45 20          	mov    %rax,0x20(%rbp)
  402a7e:	c7 45 28 64 64 72 65 	movl   $0x65726464,0x28(%rbp)
  402a85:	66 c7 45 2c 73 73    	movw   $0x7373,0x2c(%rbp)
  402a8b:	c6 45 2e 00          	movb   $0x0,0x2e(%rbp)
  402a8f:	89 df                	mov    %ebx,%edi
  402a91:	e8 fa e1 ff ff       	callq  400c90 <close@plt>
  402a96:	b8 ff ff ff ff       	mov    $0xffffffff,%eax
  402a9b:	e9 ac 00 00 00       	jmpq   402b4c <init_driver+0x1c2>
  402aa0:	48 c7 04 24 00 00 00 	movq   $0x0,(%rsp)
  402aa7:	00 
  402aa8:	48 c7 44 24 08 00 00 	movq   $0x0,0x8(%rsp)
  402aaf:	00 00 
  402ab1:	66 c7 04 24 02 00    	movw   $0x2,(%rsp)
  402ab7:	48 8b 48 18          	mov    0x18(%rax),%rcx
  402abb:	48 63 50 14          	movslq 0x14(%rax),%rdx
  402abf:	48 8d 74 24 04       	lea    0x4(%rsp),%rsi
  402ac4:	48 8b 39             	mov    (%rcx),%rdi
  402ac7:	e8 94 e2 ff ff       	callq  400d60 <bcopy@plt>
  402acc:	66 c7 44 24 02 3b 6e 	movw   $0x6e3b,0x2(%rsp)
  402ad3:	ba 10 00 00 00       	mov    $0x10,%edx
  402ad8:	48 89 e6             	mov    %rsp,%rsi
  402adb:	89 df                	mov    %ebx,%edi
  402add:	e8 ee e2 ff ff       	callq  400dd0 <connect@plt>
  402ae2:	85 c0                	test   %eax,%eax
  402ae4:	79 50                	jns    402b36 <init_driver+0x1ac>
  402ae6:	48 b8 45 72 72 6f 72 	movabs $0x55203a726f727245,%rax
  402aed:	3a 20 55 
  402af0:	48 89 45 00          	mov    %rax,0x0(%rbp)
  402af4:	48 b8 6e 61 62 6c 65 	movabs $0x6f7420656c62616e,%rax
  402afb:	20 74 6f 
  402afe:	48 89 45 08          	mov    %rax,0x8(%rbp)
  402b02:	48 b8 20 63 6f 6e 6e 	movabs $0x7463656e6e6f6320,%rax
  402b09:	65 63 74 
  402b0c:	48 89 45 10          	mov    %rax,0x10(%rbp)
  402b10:	48 b8 20 74 6f 20 73 	movabs $0x76726573206f7420,%rax
  402b17:	65 72 76 
  402b1a:	48 89 45 18          	mov    %rax,0x18(%rbp)
  402b1e:	66 c7 45 20 65 72    	movw   $0x7265,0x20(%rbp)
  402b24:	c6 45 22 00          	movb   $0x0,0x22(%rbp)
  402b28:	89 df                	mov    %ebx,%edi
  402b2a:	e8 61 e1 ff ff       	callq  400c90 <close@plt>
  402b2f:	b8 ff ff ff ff       	mov    $0xffffffff,%eax
  402b34:	eb 16                	jmp    402b4c <init_driver+0x1c2>
  402b36:	89 df                	mov    %ebx,%edi
  402b38:	e8 53 e1 ff ff       	callq  400c90 <close@plt>
  402b3d:	66 c7 45 00 4f 4b    	movw   $0x4b4f,0x0(%rbp)
  402b43:	c6 45 02 00          	movb   $0x0,0x2(%rbp)
  402b47:	b8 00 00 00 00       	mov    $0x0,%eax
  402b4c:	48 83 c4 18          	add    $0x18,%rsp
  402b50:	5b                   	pop    %rbx
  402b51:	5d                   	pop    %rbp
  402b52:	c3                   	retq   

0000000000402b53 <driver_post>:
  402b53:	53                   	push   %rbx
  402b54:	48 83 ec 10          	sub    $0x10,%rsp
  402b58:	4c 89 cb             	mov    %r9,%rbx
  402b5b:	45 85 c0             	test   %r8d,%r8d
  402b5e:	74 22                	je     402b82 <driver_post+0x2f>
  402b60:	48 89 ce             	mov    %rcx,%rsi
  402b63:	bf 75 35 40 00       	mov    $0x403575,%edi
  402b68:	b8 00 00 00 00       	mov    $0x0,%eax
  402b6d:	e8 ee e0 ff ff       	callq  400c60 <printf@plt>
  402b72:	66 c7 03 4f 4b       	movw   $0x4b4f,(%rbx)
  402b77:	c6 43 02 00          	movb   $0x0,0x2(%rbx)
  402b7b:	b8 00 00 00 00       	mov    $0x0,%eax
  402b80:	eb 39                	jmp    402bbb <driver_post+0x68>
  402b82:	48 85 ff             	test   %rdi,%rdi
  402b85:	74 26                	je     402bad <driver_post+0x5a>
  402b87:	80 3f 00             	cmpb   $0x0,(%rdi)
  402b8a:	74 21                	je     402bad <driver_post+0x5a>
  402b8c:	4c 89 0c 24          	mov    %r9,(%rsp)
  402b90:	49 89 c9             	mov    %rcx,%r9
  402b93:	49 89 d0             	mov    %rdx,%r8
  402b96:	48 89 f9             	mov    %rdi,%rcx
  402b99:	48 89 f2             	mov    %rsi,%rdx
  402b9c:	be 6e 3b 00 00       	mov    $0x3b6e,%esi
  402ba1:	bf 67 30 40 00       	mov    $0x403067,%edi
  402ba6:	e8 9c f6 ff ff       	callq  402247 <submitr>
  402bab:	eb 0e                	jmp    402bbb <driver_post+0x68>
  402bad:	66 c7 03 4f 4b       	movw   $0x4b4f,(%rbx)
  402bb2:	c6 43 02 00          	movb   $0x0,0x2(%rbx)
  402bb6:	b8 00 00 00 00       	mov    $0x0,%eax
  402bbb:	48 83 c4 10          	add    $0x10,%rsp
  402bbf:	5b                   	pop    %rbx
  402bc0:	c3                   	retq   

0000000000402bc1 <check>:
  402bc1:	89 f8                	mov    %edi,%eax
  402bc3:	c1 e8 1c             	shr    $0x1c,%eax
  402bc6:	85 c0                	test   %eax,%eax
  402bc8:	74 1d                	je     402be7 <check+0x26>
  402bca:	b9 00 00 00 00       	mov    $0x0,%ecx
  402bcf:	eb 0b                	jmp    402bdc <check+0x1b>
  402bd1:	89 f8                	mov    %edi,%eax
  402bd3:	d3 e8                	shr    %cl,%eax
  402bd5:	3c 0a                	cmp    $0xa,%al
  402bd7:	74 14                	je     402bed <check+0x2c>
  402bd9:	83 c1 08             	add    $0x8,%ecx
  402bdc:	83 f9 1f             	cmp    $0x1f,%ecx
  402bdf:	7e f0                	jle    402bd1 <check+0x10>
  402be1:	b8 01 00 00 00       	mov    $0x1,%eax
  402be6:	c3                   	retq   
  402be7:	b8 00 00 00 00       	mov    $0x0,%eax
  402bec:	c3                   	retq   
  402bed:	b8 00 00 00 00       	mov    $0x0,%eax
  402bf2:	c3                   	retq   

0000000000402bf3 <gencookie>:
  402bf3:	53                   	push   %rbx
  402bf4:	83 c7 01             	add    $0x1,%edi
  402bf7:	e8 04 e0 ff ff       	callq  400c00 <srandom@plt>
  402bfc:	e8 1f e1 ff ff       	callq  400d20 <random@plt>
  402c01:	89 c3                	mov    %eax,%ebx
  402c03:	89 c7                	mov    %eax,%edi
  402c05:	e8 b7 ff ff ff       	callq  402bc1 <check>
  402c0a:	85 c0                	test   %eax,%eax
  402c0c:	74 ee                	je     402bfc <gencookie+0x9>
  402c0e:	89 d8                	mov    %ebx,%eax
  402c10:	5b                   	pop    %rbx
  402c11:	c3                   	retq   
  402c12:	66 2e 0f 1f 84 00 00 	nopw   %cs:0x0(%rax,%rax,1)
  402c19:	00 00 00 
  402c1c:	0f 1f 40 00          	nopl   0x0(%rax)

0000000000402c20 <__libc_csu_init>:
  402c20:	41 57                	push   %r15
  402c22:	41 89 ff             	mov    %edi,%r15d
  402c25:	41 56                	push   %r14
  402c27:	49 89 f6             	mov    %rsi,%r14
  402c2a:	41 55                	push   %r13
  402c2c:	49 89 d5             	mov    %rdx,%r13
  402c2f:	41 54                	push   %r12
  402c31:	4c 8d 25 d8 21 20 00 	lea    0x2021d8(%rip),%r12        # 604e10 <__frame_dummy_init_array_entry>
  402c38:	55                   	push   %rbp
  402c39:	48 8d 2d d8 21 20 00 	lea    0x2021d8(%rip),%rbp        # 604e18 <__init_array_end>
  402c40:	53                   	push   %rbx
  402c41:	4c 29 e5             	sub    %r12,%rbp
  402c44:	31 db                	xor    %ebx,%ebx
  402c46:	48 c1 fd 03          	sar    $0x3,%rbp
  402c4a:	48 83 ec 08          	sub    $0x8,%rsp
  402c4e:	e8 5d df ff ff       	callq  400bb0 <_init>
  402c53:	48 85 ed             	test   %rbp,%rbp
  402c56:	74 1e                	je     402c76 <__libc_csu_init+0x56>
  402c58:	0f 1f 84 00 00 00 00 	nopl   0x0(%rax,%rax,1)
  402c5f:	00 
  402c60:	4c 89 ea             	mov    %r13,%rdx
  402c63:	4c 89 f6             	mov    %r14,%rsi
  402c66:	44 89 ff             	mov    %r15d,%edi
  402c69:	41 ff 14 dc          	callq  *(%r12,%rbx,8)
  402c6d:	48 83 c3 01          	add    $0x1,%rbx
  402c71:	48 39 eb             	cmp    %rbp,%rbx
  402c74:	75 ea                	jne    402c60 <__libc_csu_init+0x40>
  402c76:	48 83 c4 08          	add    $0x8,%rsp
  402c7a:	5b                   	pop    %rbx
  402c7b:	5d                   	pop    %rbp
  402c7c:	41 5c                	pop    %r12
  402c7e:	41 5d                	pop    %r13
  402c80:	41 5e                	pop    %r14
  402c82:	41 5f                	pop    %r15
  402c84:	c3                   	retq   
  402c85:	90                   	nop
  402c86:	66 2e 0f 1f 84 00 00 	nopw   %cs:0x0(%rax,%rax,1)
  402c8d:	00 00 00 

0000000000402c90 <__libc_csu_fini>:
  402c90:	f3 c3                	repz retq 

Disassembly of section .fini:

0000000000402c94 <_fini>:
  402c94:	48 83 ec 08          	sub    $0x8,%rsp
  402c98:	48 83 c4 08          	add    $0x8,%rsp
  402c9c:	c3                   	retq   
